 addon

 Timestamp is 56e14c67 (Thu Mar 10 18:28:55 2016)

 Preferred load address is 0000000180000000

 Start         Length     Name                   Class
 0001:00000000 00000078H .text$di                CODE
 0001:00000080 00019463H .text$mn                CODE
 0001:000194f0 000004e9H .text$x                 CODE
 0001:000199e0 000000d0H .text$yd                CODE
 0002:00000000 00000248H .idata$5                DATA
 0002:00000248 00000008H .CRT$XCA                DATA
 0002:00000250 00000018H .CRT$XCC                DATA
 0002:00000268 00000010H .CRT$XCL                DATA
 0002:00000278 00000018H .CRT$XCU                DATA
 0002:00000290 00000008H .CRT$XCZ                DATA
 0002:00000298 00000008H .CRT$XIA                DATA
 0002:000002a0 00000020H .CRT$XIC                DATA
 0002:000002c0 00000008H .CRT$XIZ                DATA
 0002:000002c8 00000008H .CRT$XPA                DATA
 0002:000002d0 00000010H .CRT$XPX                DATA
 0002:000002e0 00000008H .CRT$XPXA               DATA
 0002:000002e8 00000008H .CRT$XPZ                DATA
 0002:000002f0 00000008H .CRT$XTA                DATA
 0002:000002f8 00000008H .CRT$XTZ                DATA
 0002:00000300 000087b0H .rdata                  DATA
 0002:00008ab0 00000074H .rdata$debug            DATA
 0002:00008b28 00000754H .rdata$r                DATA
 0002:00009280 00000008H .rtc$IAA                DATA
 0002:00009288 00000008H .rtc$IZZ                DATA
 0002:00009290 00000008H .rtc$TAA                DATA
 0002:00009298 00000008H .rtc$TZZ                DATA
 0002:000092a0 0000154cH .xdata                  DATA
 0002:0000a7f0 000001dcH .xdata$x                DATA
 0002:0000a9cc 00000020H .didat$2                DATA
 0002:0000a9ec 00000020H .didat$3                DATA
 0002:0000aa10 00000058H .didat$4                DATA
 0002:0000aa68 00000274H .didat$6                DATA
 0002:0000ace0 00000058H .didat$7                DATA
 0002:0000ad40 0000004eH .edata                  DATA
 0002:0000ad90 00000014H .idata$2                DATA
 0002:0000ada4 00000014H .idata$3                DATA
 0002:0000adb8 00000248H .idata$4                DATA
 0002:0000b000 0000054eH .idata$6                DATA
 0003:00000000 00001b28H .data                   DATA
 0003:00001b30 00000290H .data$r                 DATA
 0003:00001dc0 00000058H .didat$5                DATA
 0003:00001e20 000028d0H .bss                    DATA
 0004:00000000 00001650H .pdata                  DATA
 0005:00000000 00000058H .rsrc$01                DATA
 0005:00000060 00000180H .rsrc$02                DATA

  Address         Publics by Value              Rva+Base               Lib:Object

 0000:00000000       ___safe_se_handler_table   0000000000000000     <absolute>
 0000:00000000       ___safe_se_handler_count   0000000000000000     <absolute>
 0000:00000000       __guard_fids_count         0000000000000000     <absolute>
 0000:00000000       __guard_fids_table         0000000000000000     <absolute>
 0000:00000000       __guard_flags              0000000000000000     <absolute>
 0000:00000000       __ImageBase                0000000180000000     <linker-defined>
 0001:00000080       ?what@exception@stdext@@UEBAPEBDXZ 0000000180001080 f i hanaRouting.obj
 0001:000000a0       ?_Unlock@?$basic_streambuf@DU?$char_traits@D@std@@@std@@UEAAXXZ 00000001800010a0 f i hanaRouting.obj
 0001:000000a0       ?imbue@?$basic_streambuf@DU?$char_traits@D@std@@@std@@MEAAXAEBVlocale@2@@Z 00000001800010a0 f i hanaRouting.obj
 0001:000000a0       ?_Lock@?$basic_streambuf@DU?$char_traits@D@std@@@std@@UEAAXXZ 00000001800010a0 f i hanaRouting.obj
 0001:000000a0       ?_Doraise@exception@stdext@@MEBAXXZ 00000001800010a0 f i hanaRouting.obj
 0001:000000b0       ??_G_System_error@std@@UEAAPEAXI@Z 00000001800010b0 f i hanaRouting.obj
 0001:000000b0       ??_Eexception@stdext@@UEAAPEAXI@Z 00000001800010b0 f i * CIL library *:* CIL module *
 0001:000000b0       ??_Gruntime_error@std@@UEAAPEAXI@Z 00000001800010b0 f i hanaRouting.obj
 0001:000000b0       ??_Efailure@ios_base@std@@UEAAPEAXI@Z 00000001800010b0 f i * CIL library *:* CIL module *
 0001:000000b0       ??_Eruntime_error@std@@UEAAPEAXI@Z 00000001800010b0 f i * CIL library *:* CIL module *
 0001:000000b0       ??_Gexception@stdext@@UEAAPEAXI@Z 00000001800010b0 f i hanaRouting.obj
 0001:000000b0       ??_Gfailure@ios_base@std@@UEAAPEAXI@Z 00000001800010b0 f i hanaRouting.obj
 0001:000000b0       ??_E_System_error@std@@UEAAPEAXI@Z 00000001800010b0 f i * CIL library *:* CIL module *
 0001:000000e0       ?_Doraise@runtime_error@std@@MEBAXXZ 00000001800010e0 f i hanaRouting.obj
 0001:000000e0       ?_Doraise@failure@ios_base@std@@MEBAXXZ 00000001800010e0 f i hanaRouting.obj
 0001:00000100       ??0_Locinfo@std@@QEAA@PEBD@Z 0000000180001100 f i hanaRouting.obj
 0001:000001c0       ??1_Locinfo@std@@QEAA@XZ   00000001800011c0 f i hanaRouting.obj
 0001:00000260       ??_G_Facet_base@std@@UEAAPEAXI@Z 0000000180001260 f i hanaRouting.obj
 0001:00000260       ??_E?$num_put@DV?$ostreambuf_iterator@DU?$char_traits@D@std@@@std@@@std@@MEAAPEAXI@Z 0000000180001260 f i * CIL library *:* CIL module *
 0001:00000260       ??_G?$num_put@DV?$ostreambuf_iterator@DU?$char_traits@D@std@@@std@@@std@@MEAAPEAXI@Z 0000000180001260 f i hanaRouting.obj
 0001:00000260       ??_E_Facet_base@std@@UEAAPEAXI@Z 0000000180001260 f i * CIL library *:* CIL module *
 0001:00000290       ?_Incref@facet@locale@std@@UEAAXXZ 0000000180001290 f i hanaRouting.obj
 0001:000002a0       ?_Decref@facet@locale@std@@UEAAPEAV_Facet_base@3@XZ 00000001800012a0 f i hanaRouting.obj
 0001:000002b0       ?_Getcat@?$ctype@D@std@@SA_KPEAPEBVfacet@locale@2@PEBV42@@Z 00000001800012b0 f i hanaRouting.obj
 0001:00000390       ?do_tolower@?$ctype@D@std@@MEBADD@Z 0000000180001390 f i hanaRouting.obj
 0001:000003a0       ?do_tolower@?$ctype@D@std@@MEBAPEBDPEADPEBD@Z 00000001800013a0 f i hanaRouting.obj
 0001:00000410       ?do_toupper@?$ctype@D@std@@MEBADD@Z 0000000180001410 f i hanaRouting.obj
 0001:00000420       ?do_toupper@?$ctype@D@std@@MEBAPEBDPEADPEBD@Z 0000000180001420 f i hanaRouting.obj
 0001:00000490       ?do_narrow@?$ctype@D@std@@MEBADDD@Z 0000000180001490 f i hanaRouting.obj
 0001:00000490       ?do_widen@?$ctype@D@std@@MEBADD@Z 0000000180001490 f i hanaRouting.obj
 0001:000004a0       ?do_widen@?$ctype@D@std@@MEBAPEBDPEBD0PEAD@Z 00000001800014a0 f i hanaRouting.obj
 0001:000004c0       ?do_narrow@?$ctype@D@std@@MEBAPEBDPEBD0DPEAD@Z 00000001800014c0 f i hanaRouting.obj
 0001:000004e0       ??_E?$ctype@D@std@@MEAAPEAXI@Z 00000001800014e0 f i * CIL library *:* CIL module *
 0001:000004e0       ??_G?$ctype@D@std@@MEAAPEAXI@Z 00000001800014e0 f i hanaRouting.obj
 0001:00000550       ??0_System_error@std@@IEAA@Verror_code@1@AEBV?$basic_string@DU?$char_traits@D@std@@V?$allocator@D@2@@1@@Z 0000000180001550 f i hanaRouting.obj
 0001:000006c0       ?clear@ios_base@std@@QEAAXH_N@Z 00000001800016c0 f i hanaRouting.obj
 0001:000008f0       ??_Eios_base@std@@UEAAPEAXI@Z 00000001800018f0 f i * CIL library *:* CIL module *
 0001:000008f0       ??_Gios_base@std@@UEAAPEAXI@Z 00000001800018f0 f i hanaRouting.obj
 0001:00000930       ?Method@demo@@YAXAEBV?$FunctionCallbackInfo@VValue@v8@@@v8@@@Z 0000000180001930 f   hanaRouting.obj
 0001:00000fb0       ??_D?$basic_ostringstream@DU?$char_traits@D@std@@V?$allocator@D@2@@std@@QEAAXXZ 0000000180001fb0 f i hanaRouting.obj
 0001:00001040       ?init@demo@@YAXV?$Local@VObject@v8@@@v8@@@Z 0000000180002040 f   hanaRouting.obj
 0001:00001070       ?pbackfail@?$basic_streambuf@DU?$char_traits@D@std@@@std@@MEAAHH@Z 0000000180002070 f i hanaRouting.obj
 0001:00001070       ?overflow@?$basic_streambuf@DU?$char_traits@D@std@@@std@@MEAAHH@Z 0000000180002070 f i hanaRouting.obj
 0001:00001070       ?underflow@?$basic_streambuf@DU?$char_traits@D@std@@@std@@MEAAHXZ 0000000180002070 f i hanaRouting.obj
 0001:00001080       __init_dummy               0000000180002080 f i LIBCMT:wsetloca.obj
 0001:00001080       ?showmanyc@?$basic_streambuf@DU?$char_traits@D@std@@@std@@MEAA_JXZ 0000000180002080 f i hanaRouting.obj
 0001:00001080       ?sync@?$basic_streambuf@DU?$char_traits@D@std@@@std@@MEAAHXZ 0000000180002080 f i hanaRouting.obj
 0001:00001080       __init_collate             0000000180002080 f i LIBCMT:initcoll.obj
 0001:00001090       ?uflow@?$basic_streambuf@DU?$char_traits@D@std@@@std@@MEAAHXZ 0000000180002090 f i hanaRouting.obj
 0001:000010d0       ?xsgetn@?$basic_streambuf@DU?$char_traits@D@std@@@std@@MEAA_JPEAD_J@Z 00000001800020d0 f i hanaRouting.obj
 0001:00001190       ?xsputn@?$basic_streambuf@DU?$char_traits@D@std@@@std@@MEAA_JPEBD_J@Z 0000000180002190 f i hanaRouting.obj
 0001:00001250       ?seekpos@?$basic_streambuf@DU?$char_traits@D@std@@@std@@MEAA?AV?$fpos@H@2@V32@H@Z 0000000180002250 f i hanaRouting.obj
 0001:00001250       ?seekoff@?$basic_streambuf@DU?$char_traits@D@std@@@std@@MEAA?AV?$fpos@H@2@_JHH@Z 0000000180002250 f i hanaRouting.obj
 0001:00001270       ?setbuf@?$basic_streambuf@DU?$char_traits@D@std@@@std@@MEAAPEAV12@PEAD_J@Z 0000000180002270 f i hanaRouting.obj
 0001:00001280       ??6?$basic_ostream@DU?$char_traits@D@std@@@std@@QEAAAEAV01@N@Z 0000000180002280 f i hanaRouting.obj
 0001:00001430       ??1?$basic_stringbuf@DU?$char_traits@D@std@@V?$allocator@D@2@@std@@UEAA@XZ 0000000180002430 f i hanaRouting.obj
 0001:000014d0       ?overflow@?$basic_stringbuf@DU?$char_traits@D@std@@V?$allocator@D@2@@std@@MEAAHH@Z 00000001800024d0 f i hanaRouting.obj
 0001:00001750       ?pbackfail@?$basic_stringbuf@DU?$char_traits@D@std@@V?$allocator@D@2@@std@@MEAAHH@Z 0000000180002750 f i hanaRouting.obj
 0001:000017a0       ?underflow@?$basic_stringbuf@DU?$char_traits@D@std@@V?$allocator@D@2@@std@@MEAAHXZ 00000001800027a0 f i hanaRouting.obj
 0001:00001800       ?seekoff@?$basic_stringbuf@DU?$char_traits@D@std@@V?$allocator@D@2@@std@@MEAA?AV?$fpos@H@2@_JHH@Z 0000000180002800 f i hanaRouting.obj
 0001:00001990       ?seekpos@?$basic_stringbuf@DU?$char_traits@D@std@@V?$allocator@D@2@@std@@MEAA?AV?$fpos@H@2@V32@H@Z 0000000180002990 f i hanaRouting.obj
 0001:00001aa0       ??_G?$basic_streambuf@DU?$char_traits@D@std@@@std@@UEAAPEAXI@Z 0000000180002aa0 f i hanaRouting.obj
 0001:00001aa0       ??_E?$basic_streambuf@DU?$char_traits@D@std@@@std@@UEAAPEAXI@Z 0000000180002aa0 f i * CIL library *:* CIL module *
 0001:00001b20       ??_G?$basic_ostream@DU?$char_traits@D@std@@@std@@UEAAPEAXI@Z 0000000180002b20 f i hanaRouting.obj
 0001:00001b20       ??_E?$basic_ostream@DU?$char_traits@D@std@@@std@@UEAAPEAXI@Z 0000000180002b20 f i * CIL library *:* CIL module *
 0001:00001b90       ??_G?$basic_ostringstream@DU?$char_traits@D@std@@V?$allocator@D@2@@std@@UEAAPEAXI@Z 0000000180002b90 f i hanaRouting.obj
 0001:00001b90       ??_E?$basic_ostringstream@DU?$char_traits@D@std@@V?$allocator@D@2@@std@@UEAAPEAXI@Z 0000000180002b90 f i * CIL library *:* CIL module *
 0001:00001bd0       ??_G?$basic_stringbuf@DU?$char_traits@D@std@@V?$allocator@D@2@@std@@UEAAPEAXI@Z 0000000180002bd0 f i hanaRouting.obj
 0001:00001bd0       ??_E?$basic_stringbuf@DU?$char_traits@D@std@@V?$allocator@D@2@@std@@UEAAPEAXI@Z 0000000180002bd0 f i * CIL library *:* CIL module *
 0001:00001c00       ?append@?$basic_string@DU?$char_traits@D@std@@V?$allocator@D@2@@std@@QEAAAEAV12@AEBV12@_K1@Z 0000000180002c00 f i hanaRouting.obj
 0001:00001d30       ?append@?$basic_string@DU?$char_traits@D@std@@V?$allocator@D@2@@std@@QEAAAEAV12@PEBD_K@Z 0000000180002d30 f i hanaRouting.obj
 0001:00001e80       ?assign@?$basic_string@DU?$char_traits@D@std@@V?$allocator@D@2@@std@@QEAAAEAV12@AEBV12@_K1@Z 0000000180002e80 f i hanaRouting.obj
 0001:00001fb0       ?_Gnavail@?$basic_streambuf@DU?$char_traits@D@std@@@std@@IEBA_JXZ 0000000180002fb0 f i hanaRouting.obj
 0001:00001fd0       ?_Pnavail@?$basic_streambuf@DU?$char_traits@D@std@@@std@@IEBA_JXZ 0000000180002fd0 f i hanaRouting.obj
 0001:00001ff0       ?str@?$basic_stringbuf@DU?$char_traits@D@std@@V?$allocator@D@2@@std@@QEBA?AV?$basic_string@DU?$char_traits@D@std@@V?$allocator@D@2@@2@XZ 0000000180002ff0 f i hanaRouting.obj
 0001:00002180       ??0sentry@?$basic_ostream@DU?$char_traits@D@std@@@std@@QEAA@AEAV12@@Z 0000000180003180 f i hanaRouting.obj
 0001:000021f0       ?do_put@?$num_put@DV?$ostreambuf_iterator@DU?$char_traits@D@std@@@std@@@std@@MEBA?AV?$ostreambuf_iterator@DU?$char_traits@D@std@@@2@V32@AEAVios_base@2@D_N@Z 00000001800031f0 f i hanaRouting.obj
 0001:00002510       ?do_put@?$num_put@DV?$ostreambuf_iterator@DU?$char_traits@D@std@@@std@@@std@@MEBA?AV?$ostreambuf_iterator@DU?$char_traits@D@std@@@2@V32@AEAVios_base@2@DJ@Z 0000000180003510 f i hanaRouting.obj
 0001:00002610       ?do_put@?$num_put@DV?$ostreambuf_iterator@DU?$char_traits@D@std@@@std@@@std@@MEBA?AV?$ostreambuf_iterator@DU?$char_traits@D@std@@@2@V32@AEAVios_base@2@DK@Z 0000000180003610 f i hanaRouting.obj
 0001:00002710       ?do_put@?$num_put@DV?$ostreambuf_iterator@DU?$char_traits@D@std@@@std@@@std@@MEBA?AV?$ostreambuf_iterator@DU?$char_traits@D@std@@@2@V32@AEAVios_base@2@D_J@Z 0000000180003710 f i hanaRouting.obj
 0001:00002810       ?do_put@?$num_put@DV?$ostreambuf_iterator@DU?$char_traits@D@std@@@std@@@std@@MEBA?AV?$ostreambuf_iterator@DU?$char_traits@D@std@@@2@V32@AEAVios_base@2@D_K@Z 0000000180003810 f i hanaRouting.obj
 0001:00002910       ?do_put@?$num_put@DV?$ostreambuf_iterator@DU?$char_traits@D@std@@@std@@@std@@MEBA?AV?$ostreambuf_iterator@DU?$char_traits@D@std@@@2@V32@AEAVios_base@2@DN@Z 0000000180003910 f i hanaRouting.obj
 0001:00002b50       ?do_put@?$num_put@DV?$ostreambuf_iterator@DU?$char_traits@D@std@@@std@@@std@@MEBA?AV?$ostreambuf_iterator@DU?$char_traits@D@std@@@2@V32@AEAVios_base@2@DO@Z 0000000180003b50 f i hanaRouting.obj
 0001:00002d80       ?do_put@?$num_put@DV?$ostreambuf_iterator@DU?$char_traits@D@std@@@std@@@std@@MEBA?AV?$ostreambuf_iterator@DU?$char_traits@D@std@@@2@V32@AEAVios_base@2@DPEBX@Z 0000000180003d80 f i hanaRouting.obj
 0001:00002e20       ?do_decimal_point@?$numpunct@D@std@@MEBADXZ 0000000180003e20 f i hanaRouting.obj
 0001:00002e30       ?do_thousands_sep@?$numpunct@D@std@@MEBADXZ 0000000180003e30 f i hanaRouting.obj
 0001:00002e40       ?do_grouping@?$numpunct@D@std@@MEBA?AV?$basic_string@DU?$char_traits@D@std@@V?$allocator@D@2@@2@XZ 0000000180003e40 f i hanaRouting.obj
 0001:00002e90       ?do_falsename@?$numpunct@D@std@@MEBA?AV?$basic_string@DU?$char_traits@D@std@@V?$allocator@D@2@@2@XZ 0000000180003e90 f i hanaRouting.obj
 0001:00002ee0       ?do_truename@?$numpunct@D@std@@MEBA?AV?$basic_string@DU?$char_traits@D@std@@V?$allocator@D@2@@2@XZ 0000000180003ee0 f i hanaRouting.obj
 0001:00002f30       ??_G?$numpunct@D@std@@MEAAPEAXI@Z 0000000180003f30 f i hanaRouting.obj
 0001:00002f30       ??_E?$numpunct@D@std@@MEAAPEAXI@Z 0000000180003f30 f i * CIL library *:* CIL module *
 0001:00002f90       ?assign@?$basic_string@DU?$char_traits@D@std@@V?$allocator@D@2@@std@@QEAAAEAV12@PEBD_K@Z 0000000180003f90 f i hanaRouting.obj
 0001:000030d0       ?insert@?$basic_string@DU?$char_traits@D@std@@V?$allocator@D@2@@std@@QEAAAEAV12@_K0D@Z 00000001800040d0 f i hanaRouting.obj
 0001:00003240       ?erase@?$basic_string@DU?$char_traits@D@std@@V?$allocator@D@2@@std@@QEAAAEAV12@_K0@Z 0000000180004240 f i hanaRouting.obj
 0001:00003310       ??0?$basic_streambuf@DU?$char_traits@D@std@@@std@@IEAA@XZ 0000000180004310 f i hanaRouting.obj
 0001:000033c0       ?flush@?$basic_ostream@DU?$char_traits@D@std@@@std@@QEAAAEAV12@XZ 00000001800043c0 f i hanaRouting.obj
 0001:000034a0       ?_Fput@?$num_put@DV?$ostreambuf_iterator@DU?$char_traits@D@std@@@std@@@std@@AEBA?AV?$ostreambuf_iterator@DU?$char_traits@D@std@@@2@V32@AEAVios_base@2@DPEBD_K333@Z 00000001800044a0 f i hanaRouting.obj
 0001:00003c00       ?_Iput@?$num_put@DV?$ostreambuf_iterator@DU?$char_traits@D@std@@@std@@@std@@AEBA?AV?$ostreambuf_iterator@DU?$char_traits@D@std@@@2@V32@AEAVios_base@2@DPEAD_K@Z 0000000180004c00 f i hanaRouting.obj
 0001:00004290       ?assign@?$basic_string@DU?$char_traits@D@std@@V?$allocator@D@2@@std@@QEAAAEAV12@_KD@Z 0000000180005290 f i hanaRouting.obj
 0001:000043a0       ?_Copy@?$basic_string@DU?$char_traits@D@std@@V?$allocator@D@2@@std@@QEAAX_K0@Z 00000001800053a0 f i hanaRouting.obj
 0001:00004490       ??$use_facet@V?$ctype@D@std@@@std@@YAAEBV?$ctype@D@0@AEBVlocale@0@@Z 0000000180005490 f i hanaRouting.obj
 0001:000045a0       ??$NODE_SET_METHOD@V?$Local@VObject@v8@@@v8@@@node@@YAXAEBV?$Local@VObject@v8@@@v8@@PEBDP6AXAEBV?$FunctionCallbackInfo@VValue@v8@@@2@@Z@Z 00000001800055a0 f i hanaRouting.obj
 0001:00004660       ??$use_facet@V?$num_put@DV?$ostreambuf_iterator@DU?$char_traits@D@std@@@std@@@std@@@std@@YAAEBV?$num_put@DV?$ostreambuf_iterator@DU?$char_traits@D@std@@@std@@@0@AEBVlocale@0@@Z 0000000180005660 f i hanaRouting.obj
 0001:00004770       ??$use_facet@V?$numpunct@D@std@@@std@@YAAEBV?$numpunct@D@0@AEBVlocale@0@@Z 0000000180005770 f i hanaRouting.obj
 0001:00004880       ?_Getcat@?$num_put@DV?$ostreambuf_iterator@DU?$char_traits@D@std@@@std@@@std@@SA_KPEAPEBVfacet@locale@2@PEBV42@@Z 0000000180005880 f i hanaRouting.obj
 0001:00004940       ?_Getcat@?$numpunct@D@std@@SA_KPEAPEBVfacet@locale@2@PEBV42@@Z 0000000180005940 f i hanaRouting.obj
 0001:00004a20       ?insert@?$basic_string@DU?$char_traits@D@std@@V?$allocator@D@2@@std@@QEAAAEAV12@_KAEBV12@00@Z 0000000180005a20 f i hanaRouting.obj
 0001:00004b90       ?_Init@?$numpunct@D@std@@IEAAXAEBV_Locinfo@2@_N@Z 0000000180005b90 f i hanaRouting.obj
 0001:00004cc0       ??_E?$basic_ostringstream@DU?$char_traits@D@std@@V?$allocator@D@2@@std@@$4PPPPPPPM@A@EAAPEAXI@Z 0000000180005cc0 f i hanaRouting.obj
 0001:00004ccc       ??_E?$basic_ostream@DU?$char_traits@D@std@@@std@@$4PPPPPPPM@A@EAAPEAXI@Z 0000000180005ccc f i hanaRouting.obj
 0001:00004d2c       __imp_load_node_module_register 0000000180005d2c f   node:node.exe
 0001:00004d38       __tailMerge_node_exe       0000000180005d38 f i node:node.exe
 0001:00004db1       __imp_load_?NumberValue@Value@v8@@QEBANXZ 0000000180005db1 f   node:node.exe
 0001:00004dbd       __imp_load_?GetFunction@FunctionTemplate@v8@@QEAA?AV?$Local@VFunction@v8@@@2@XZ 0000000180005dbd f   node:node.exe
 0001:00004dc9       __imp_load_?New@FunctionTemplate@v8@@SA?AV?$Local@VFunctionTemplate@v8@@@2@PEAVIsolate@2@P6AXAEBV?$FunctionCallbackInfo@VValue@v8@@@2@@ZV?$Local@VValue@v8@@@2@V?$Local@VSignature@v8@@@2@H@Z 0000000180005dc9 f   node:node.exe
 0001:00004dd5       __imp_load_?NewFromUtf8@String@v8@@SA?AV?$Local@VString@v8@@@2@PEAVIsolate@2@PEBDW4NewStringType@12@H@Z 0000000180005dd5 f   node:node.exe
 0001:00004de1       __imp_load_??1HandleScope@v8@@QEAA@XZ 0000000180005de1 f   node:node.exe
 0001:00004ded       __imp_load_??0HandleScope@v8@@QEAA@PEAVIsolate@1@@Z 0000000180005ded f   node:node.exe
 0001:00004df9       __imp_load_?Set@Object@v8@@QEAA_NV?$Local@VValue@v8@@@2@0@Z 0000000180005df9 f   node:node.exe
 0001:00004e05       __imp_load_?SetName@Function@v8@@QEAAXV?$Local@VString@v8@@@2@@Z 0000000180005e05 f   node:node.exe
 0001:00004e11       __imp_load_?GetCurrent@Isolate@v8@@SAPEAV12@XZ 0000000180005e11 f   node:node.exe
 0001:00004e20       _Getcvt                    0000000180005e20 f   libcpmt:xwctomb.obj
 0001:00004eb0       ??4?$_Yarn@D@std@@QEAAAEAV01@PEBD@Z 0000000180005eb0 f i libcpmt:locale0.obj
 0001:00004f28       ??_E_Locimp@locale@std@@MEAAPEAXI@Z 0000000180005f28 f i libcpmt:locale0.obj
 0001:00004f28       ??_G_Locimp@locale@std@@MEAAPEAXI@Z 0000000180005f28 f i libcpmt:locale0.obj
 0001:00004f80       ?_Facet_Register@std@@YAXPEAV_Facet_base@1@@Z 0000000180005f80 f   libcpmt:locale0.obj
 0001:00004fb4       ?_Getgloballocale@locale@std@@CAPEAV_Locimp@12@XZ 0000000180005fb4 f   libcpmt:locale0.obj
 0001:00004fbc       ?_Init@locale@std@@CAPEAV_Locimp@12@_N@Z 0000000180005fbc f   libcpmt:locale0.obj
 0001:0000505c       ?_Locimp_dtor@_Locimp@locale@std@@CAXPEAV123@@Z 000000018000605c f   libcpmt:locale0.obj
 0001:000050d4       ?_Locinfo_ctor@_Locinfo@std@@SAXPEAV12@PEBD@Z 00000001800060d4 f   libcpmt:locale0.obj
 0001:00005140       ?_Locinfo_dtor@_Locinfo@std@@SAXPEAV12@@Z 0000000180006140 f   libcpmt:locale0.obj
 0001:00005164       ?_New_Locimp@_Locimp@locale@std@@CAPEAV123@_N@Z 0000000180006164 f   libcpmt:locale0.obj
 0001:000051d0       ?_Setgloballocale@locale@std@@CAXPEAX@Z 00000001800061d0 f   libcpmt:locale0.obj
 0001:00005204       _Deletegloballocale        0000000180006204 f   libcpmt:locale0.obj
 0001:00005264       ?_Ios_base_dtor@ios_base@std@@CAXPEAV12@@Z 0000000180006264 f   libcpmt:ios.obj
 0001:000052c8       ?_Tidy@ios_base@std@@AEAAXXZ 00000001800062c8 f i libcpmt:ios.obj
 0001:00005338       ??0bad_alloc@std@@QEAA@AEBV01@@Z 0000000180006338 f i libcpmt:xthrow.obj
 0001:0000535c       ??0length_error@std@@QEAA@AEBV01@@Z 000000018000635c f i libcpmt:xthrow.obj
 0001:00005380       ??0logic_error@std@@QEAA@AEBV01@@Z 0000000180006380 f i libcpmt:xthrow.obj
 0001:000053a4       ??0out_of_range@std@@QEAA@AEBV01@@Z 00000001800063a4 f i libcpmt:xthrow.obj
 0001:000053c8       ??1bad_alloc@std@@UEAA@XZ  00000001800063c8 f i libcpmt:xthrow.obj
 0001:000053d8       ??1out_of_range@std@@UEAA@XZ 00000001800063d8 f i libcpmt:xthrow.obj
 0001:000053d8       ??1length_error@std@@UEAA@XZ 00000001800063d8 f i libcpmt:xthrow.obj
 0001:000053e0       ??_Gbad_alloc@std@@UEAAPEAXI@Z 00000001800063e0 f i libcpmt:xthrow.obj
 0001:000053e0       ??_Ebad_alloc@std@@UEAAPEAXI@Z 00000001800063e0 f i libcpmt:xthrow.obj
 0001:0000541c       ??_Glogic_error@std@@UEAAPEAXI@Z 000000018000641c f i libcpmt:xthrow.obj
 0001:0000541c       ??_Elength_error@std@@UEAAPEAXI@Z 000000018000641c f i libcpmt:xthrow.obj
 0001:0000541c       ??_Glength_error@std@@UEAAPEAXI@Z 000000018000641c f i libcpmt:xthrow.obj
 0001:0000541c       ??_Elogic_error@std@@UEAAPEAXI@Z 000000018000641c f i libcpmt:xthrow.obj
 0001:0000541c       ??_Gout_of_range@std@@UEAAPEAXI@Z 000000018000641c f i libcpmt:xthrow.obj
 0001:0000541c       ??_Eout_of_range@std@@UEAAPEAXI@Z 000000018000641c f i libcpmt:xthrow.obj
 0001:0000544c       ?_Xbad_alloc@std@@YAXXZ    000000018000644c f   libcpmt:xthrow.obj
 0001:00005490       ?_Xlength_error@std@@YAXPEBD@Z 0000000180006490 f   libcpmt:xthrow.obj
 0001:000054c8       ?_Xout_of_range@std@@YAXPEBD@Z 00000001800064c8 f   libcpmt:xthrow.obj
 0001:00005500       ??0_Init_locks@std@@QEAA@XZ 0000000180006500 f   libcpmt:xlock.obj
 0001:0000554c       ??0_Lockit@std@@QEAA@H@Z   000000018000654c f   libcpmt:xlock.obj
 0001:0000558c       ??1_Init_locks@std@@QEAA@XZ 000000018000658c f   libcpmt:xlock.obj
 0001:000055c8       ??1_Lockit@std@@QEAA@XZ    00000001800065c8 f   libcpmt:xlock.obj
 0001:00005600       ??_U@YAPEAX_K@Z            0000000180006600 f   libcpmt:newaop.obj
 0001:00005608       _Getctype                  0000000180006608 f   libcpmt:_tolower.obj
 0001:00005684       _Tolower                   0000000180006684 f   libcpmt:_tolower.obj
 0001:000057b8       _Toupper                   00000001800067b8 f   libcpmt:_toupper.obj
 0001:000058fc       ?_Atexit@@YAXP6AXXZ@Z      00000001800068fc f   libcpmt:iosptrs.obj
 0001:0000593c       _Mtxdst                    000000018000693c f   libcpmt:xmtx.obj
 0001:00005944       _Mtxinit                   0000000180006944 f   libcpmt:xmtx.obj
 0001:00005954       _Mtxlock                   0000000180006954 f   libcpmt:xmtx.obj
 0001:0000595c       _Mtxunlock                 000000018000695c f   libcpmt:xmtx.obj
 0001:00005980       __security_check_cookie    0000000180006980 f   LIBCMT:amdsecgs.obj
 0001:000059a0       _set_abort_behavior        00000001800069a0 f   LIBCMT:abort.obj
 0001:000059bc       abort                      00000001800069bc f   LIBCMT:abort.obj
 0001:00005a14       _call_reportfault          0000000180006a14 f   LIBCMT:invarg.obj
 0001:00005b08       _initp_misc_invarg         0000000180006b08 f   LIBCMT:invarg.obj
 0001:00005b10       _invalid_parameter         0000000180006b10 f   LIBCMT:invarg.obj
 0001:00005b78       _invalid_parameter_noinfo  0000000180006b78 f   LIBCMT:invarg.obj
 0001:00005b98       _invoke_watson             0000000180006b98 f   LIBCMT:invarg.obj
 0001:00005bd4       sprintf_s                  0000000180006bd4 f   LIBCMT:sprintf.obj
 0001:00005c10       memmove                    0000000180006c10 f   LIBCMT:memcpy.obj
 0001:00005c10       memcpy                     0000000180006c10 f   LIBCMT:memcpy.obj
 0001:00006178       free                       0000000180007178 f   LIBCMT:free.obj
 0001:000061b8       localeconv                 00000001800071b8 f   LIBCMT:lconv.obj
 0001:000061f0       __onexitinit               00000001800071f0 f   LIBCMT:onexit.obj
 0001:00006234       _onexit                    0000000180007234 f   LIBCMT:onexit.obj
 0001:00006340       atexit                     0000000180007340 f   LIBCMT:onexit.obj
 0001:00006358       ??_V@YAXPEAX@Z             0000000180007358 f   LIBCMT:delete2.obj
 0001:00006360       _purecall                  0000000180007360 f   LIBCMT:purevirt.obj
 0001:0000638c       ??3@YAXPEAX@Z              000000018000738c f   LIBCMT:delete.obj
 0001:00006394       strcspn                    0000000180007394 f   LIBCMT:strcspn.obj
 0001:00006434       ??2@YAPEAX_K@Z             0000000180007434 f   LIBCMT:new.obj
 0001:000064a0       ??0_LocaleUpdate@@QEAA@PEAUlocaleinfo_struct@@@Z 00000001800074a0 f i LIBCMT:stricmp.obj
 0001:00006548       __ascii_stricmp            0000000180007548 f   LIBCMT:stricmp.obj
 0001:00006584       _stricmp                   0000000180007584 f   LIBCMT:stricmp.obj
 0001:000065cc       _stricmp_l                 00000001800075cc f   LIBCMT:stricmp.obj
 0001:00006680       _CRT_INIT                  0000000180007680 f   LIBCMT:dllcrt0.obj
 0001:000067e0       _DllMainCRTStartup         00000001800077e0 f   LIBCMT:dllcrt0.obj
 0001:00006940       ___lc_codepage_func        0000000180007940 f   LIBCMT:initctyp.obj
 0001:00006978       ___lc_locale_name_func     0000000180007978 f   LIBCMT:initctyp.obj
 0001:000069b4       ___mb_cur_max_func         00000001800079b4 f   LIBCMT:initctyp.obj
 0001:000069f0       __init_ctype               00000001800079f0 f   LIBCMT:initctyp.obj
 0001:00006e14       __doserrno                 0000000180007e14 f   LIBCMT:dosmap.obj
 0001:00006e34       _dosmaperr                 0000000180007e34 f   LIBCMT:dosmap.obj
 0001:00006e84       _errno                     0000000180007e84 f   LIBCMT:dosmap.obj
 0001:00006ea4       _get_errno_from_oserr      0000000180007ea4 f   LIBCMT:dosmap.obj
 0001:00006f70       _ismbblead                 0000000180007f70 f   LIBCMT:ismbbyte.obj
 0001:00006fa0       memset                     0000000180007fa0 f   LIBCMT:memset.obj
 0001:000071e0       strlen                     00000001800081e0 f   LIBCMT:strlen.obj
 0001:00007288       _CxxThrowException         0000000180008288 f   LIBCMT:throw.obj
 0001:00007350       ?_GetEstablisherFrame@@YAPEA_KPEA_KPEAU_xDISPATCHER_CONTEXT@@PEBU_s_FuncInfo@@0@Z 0000000180008350 f   LIBCMT:trnsctrl.obj
 0001:0000741c       ?_GetRangeOfTrysToCheck@@YAPEBU_s_TryBlockMapEntry@@PEA_KPEBU_s_FuncInfo@@HHPEAI2PEAU_xDISPATCHER_CONTEXT@@@Z 000000018000841c f   LIBCMT:trnsctrl.obj
 0001:00007548       ?__FrameUnwindToEmptyState@@YAXPEA_KPEAU_xDISPATCHER_CONTEXT@@PEBU_s_FuncInfo@@@Z 0000000180008548 f   LIBCMT:trnsctrl.obj
 0001:000075dc       ?__SehTransFilter@@YAHPEAU_EXCEPTION_POINTERS@@PEAUEHExceptionRecord@@PEA_KPEAU_CONTEXT@@PEAU_xDISPATCHER_CONTEXT@@PEBU_s_FuncInfo@@PEAH@Z 00000001800085dc f   LIBCMT:trnsctrl.obj
 0001:00007680       _CallSETranslator          0000000180008680 f   LIBCMT:trnsctrl.obj
 0001:000076d4       _CreateFrameInfo           00000001800086d4 f   LIBCMT:trnsctrl.obj
 0001:00007718       _FindAndUnlinkFrame        0000000180008718 f   LIBCMT:trnsctrl.obj
 0001:00007778       _GetImageBase              0000000180008778 f   LIBCMT:trnsctrl.obj
 0001:00007790       _GetThrowImageBase         0000000180008790 f   LIBCMT:trnsctrl.obj
 0001:000077a8       _IsExceptionObjectToBeDestroyed 00000001800087a8 f   LIBCMT:trnsctrl.obj
 0001:000077dc       _SetImageBase              00000001800087dc f   LIBCMT:trnsctrl.obj
 0001:000077f8       _SetThrowImageBase         00000001800087f8 f   LIBCMT:trnsctrl.obj
 0001:00007814       _UnwindNestedFrames        0000000180008814 f   LIBCMT:trnsctrl.obj
 0001:00007938       __CxxFrameHandler3         0000000180008938 f   LIBCMT:trnsctrl.obj
 0001:000079c0       ??8type_info@@QEBA_NAEBV0@@Z 00000001800089c0 f   LIBCMT:typinfo.obj
 0001:000079e0       ??_Etype_info@@UEAAPEAXI@Z 00000001800089e0 f i LIBCMT:typinfo.obj
 0001:000079e0       ??_Gtype_info@@UEAAPEAXI@Z 00000001800089e0 f i LIBCMT:typinfo.obj
 0001:00007a1c       _fpmath                    0000000180008a1c f   LIBCMT:fpinit.obj
 0001:00007a24       _cfltcvt_init              0000000180008a24 f   LIBCMT:fpinit.obj
 0001:00007aac       malloc                     0000000180008aac f   LIBCMT:malloc.obj
 0001:00007b64       setlocale                  0000000180008b64 f   LIBCMT:setlocal.obj
 0001:00007dd4       ??0exception@std@@QEAA@AEBQEBD@Z 0000000180008dd4 f   LIBCMT:stdexcpt.obj
 0001:00007e04       ??0exception@std@@QEAA@AEBQEBDH@Z 0000000180008e04 f   LIBCMT:stdexcpt.obj
 0001:00007e20       ??0exception@std@@QEAA@AEBV01@@Z 0000000180008e20 f   LIBCMT:stdexcpt.obj
 0001:00007e4c       ??1exception@std@@UEAA@XZ  0000000180008e4c f   LIBCMT:stdexcpt.obj
 0001:00007e5c       ??4exception@std@@QEAAAEAV01@AEBV01@@Z 0000000180008e5c f   LIBCMT:stdexcpt.obj
 0001:00007ea0       ??_Gexception@std@@UEAAPEAXI@Z 0000000180008ea0 f i LIBCMT:stdexcpt.obj
 0001:00007ea0       ??_Eexception@std@@UEAAPEAXI@Z 0000000180008ea0 f i LIBCMT:stdexcpt.obj
 0001:00007edc       ?_Copy_str@exception@std@@AEAAXPEBD@Z 0000000180008edc f   LIBCMT:stdexcpt.obj
 0001:00007f38       ?_Tidy@exception@std@@AEAAXXZ 0000000180008f38 f   LIBCMT:stdexcpt.obj
 0001:00007f60       ?what@exception@std@@UEBAPEBDXZ 0000000180008f60 f   LIBCMT:stdexcpt.obj
 0001:00007f74       _lock                      0000000180008f74 f   LIBCMT:mlock.obj
 0001:00007fb8       _mtdeletelocks             0000000180008fb8 f   LIBCMT:mlock.obj
 0001:00008040       _mtinitlocknum             0000000180009040 f   LIBCMT:mlock.obj
 0001:00008100       _mtinitlocks               0000000180009100 f   LIBCMT:mlock.obj
 0001:00008164       _unlock                    0000000180009164 f   LIBCMT:mlock.obj
 0001:0000817c       __pctype_func              000000018000917c f   LIBCMT:ctype.obj
 0001:000081b8       isdigit                    00000001800091b8 f i LIBCMT:_ctype.obj
 0001:00008234       islower                    0000000180009234 f i LIBCMT:_ctype.obj
 0001:000082b0       isupper                    00000001800092b0 f i LIBCMT:_ctype.obj
 0001:0000832c       _wcsdup                    000000018000932c f   LIBCMT:wcsdup.obj
 0001:00008690       __crtLCMapStringA          0000000180009690 f   LIBCMT:a_map.obj
 0001:00008728       _calloc_crt                0000000180009728 f   LIBCMT:crtheap.obj
 0001:000087a8       _malloc_crt                00000001800097a8 f   LIBCMT:crtheap.obj
 0001:00008824       _realloc_crt               0000000180009824 f   LIBCMT:crtheap.obj
 0001:000088c0       strcmp                     00000001800098c0 f   LIBCMT:strcmp.obj
 0001:00008928       __GSHandlerCheck           0000000180009928 f   LIBCMT:gshandler.obj
 0001:00008948       __GSHandlerCheckCommon     0000000180009948 f   LIBCMT:gshandler.obj
 0001:000089ac       __crtCaptureCurrentContext 00000001800099ac f   LIBCMT:winapisupp.obj
 0001:00008a1c       __crtCapturePreviousContext 0000000180009a1c f   LIBCMT:winapisupp.obj
 0001:00008a90       __crtFlsAlloc              0000000180009a90 f   LIBCMT:winapisupp.obj
 0001:00008aac       __crtFlsFree               0000000180009aac f   LIBCMT:winapisupp.obj
 0001:00008ac8       __crtFlsGetValue           0000000180009ac8 f   LIBCMT:winapisupp.obj
 0001:00008ae4       __crtFlsSetValue           0000000180009ae4 f   LIBCMT:winapisupp.obj
 0001:00008b00       __crtInitializeCriticalSectionEx 0000000180009b00 f   LIBCMT:winapisupp.obj
 0001:00008b2c       __crtIsPackagedApp         0000000180009b2c f   LIBCMT:winapisupp.obj
 0001:00008b78       __crtLoadWinApiPointers    0000000180009b78 f   LIBCMT:winapisupp.obj
 0001:00008f74       __crtSleep                 0000000180009f74 f   LIBCMT:winapisupp.obj
 0001:00008f7c       __crtTerminateProcess      0000000180009f7c f   LIBCMT:winapisupp.obj
 0001:00008f9c       __crtUnhandledException    0000000180009f9c f   LIBCMT:winapisupp.obj
 0001:00008fbc       wcslen                     0000000180009fbc f   LIBCMT:wcslen.obj
 0001:00008fd8       _tolower_l                 0000000180009fd8 f   LIBCMT:tolower.obj
 0001:0000912c       tolower                    000000018000a12c f   LIBCMT:tolower.obj
 0001:00009160       memcmp                     000000018000a160 f   LIBCMT:memcmp.obj
 0001:00009228       GetTableIndexFromLcid      000000018000a228 f   LIBCMT:winapinls.obj
 0001:0000926c       GetTableIndexFromLocaleName 000000018000a26c f   LIBCMT:winapinls.obj
 0001:000092f8       __crtDownlevelLCIDToLocaleName 000000018000a2f8 f   LIBCMT:winapinls.obj
 0001:000093a8       __crtDownlevelLocaleNameToLCID 000000018000a3a8 f   LIBCMT:winapinls.obj
 0001:000093e8       __crtEnumSystemLocalesEx   000000018000a3e8 f   LIBCMT:winapinls.obj
 0001:0000942c       __crtGetLocaleInfoEx       000000018000a42c f   LIBCMT:winapinls.obj
 0001:0000947c       __crtGetUserDefaultLocaleName 000000018000a47c f   LIBCMT:winapinls.obj
 0001:000094c0       __crtIsValidLocaleName     000000018000a4c0 f   LIBCMT:winapinls.obj
 0001:000094f4       __crtLCMapStringEx         000000018000a4f4 f   LIBCMT:winapinls.obj
 0001:00009584       __wcsnicmp_ascii           000000018000a584 f   LIBCMT:winapinls.obj
 0001:000095dc       __crtLCMapStringW          000000018000a5dc f   LIBCMT:w_map.obj
 0001:00009628       __raise_securityfailure    000000018000a628 f   LIBCMT:gs_report.obj
 0001:00009674       __report_gsfailure         000000018000a674 f   LIBCMT:gs_report.obj
 0001:00009748       __report_rangecheckfailure 000000018000a748 f   LIBCMT:gs_report.obj
 0001:0000975c       __report_securityfailure   000000018000a75c f   LIBCMT:gs_report.obj
 0001:000097f8       __crtCorExitProcess        000000018000a7f8 f   LIBCMT:crt0dat.obj
 0001:0000983c       __crtExitProcess           000000018000a83c f   LIBCMT:crt0dat.obj
 0001:00009854       __freeCrtMemory            000000018000a854 f   LIBCMT:crt0dat.obj
 0001:0000999c       _amsg_exit                 000000018000a99c f   LIBCMT:crt0dat.obj
 0001:000099c4       _cexit                     000000018000a9c4 f   LIBCMT:crt0dat.obj
 0001:000099d4       _cinit                     000000018000a9d4 f   LIBCMT:crt0dat.obj
 0001:00009a6c       _exit                      000000018000aa6c f   LIBCMT:crt0dat.obj
 0001:00009a78       _init_pointers             000000018000aa78 f   LIBCMT:crt0dat.obj
 0001:00009b24       _initterm_e                000000018000ab24 f   LIBCMT:crt0dat.obj
 0001:00009b60       _lockexit                  000000018000ab60 f   LIBCMT:crt0dat.obj
 0001:00009b6c       _unlockexit                000000018000ab6c f   LIBCMT:crt0dat.obj
 0001:00009d10       __get_sigabrt              000000018000ad10 f   LIBCMT:winsig.obj
 0001:00009d20       _initp_misc_winsig         000000018000ad20 f   LIBCMT:winsig.obj
 0001:00009d40       raise                      000000018000ad40 f   LIBCMT:winsig.obj
 0001:00009f74       __crt_debugger_hook        000000018000af74 f   LIBCMT:dbghook.obj
 0001:00009f7c       _flsbuf                    000000018000af7c f   LIBCMT:_flsbuf.obj
 0001:0000a108       _vsnprintf_helper          000000018000b108 f   LIBCMT:vsnprnc.obj
 0001:0000a1f0       _vsprintf_s_l              000000018000b1f0 f   LIBCMT:vsnprnc.obj
 0001:0000a260       __isa_available_init       000000018000b260 f   LIBCMT:cpu_disp.obj
 0001:0000a404       _heap_init                 000000018000b404 f   LIBCMT:heapinit.obj
 0001:0000a424       _heap_term                 000000018000b424 f   LIBCMT:heapinit.obj
 0001:0000a430       __addlocaleref             000000018000b430 f   LIBCMT:localref.obj
 0001:0000a4bc       __freetlocinfo             000000018000b4bc f   LIBCMT:localref.obj
 0001:0000a654       __removelocaleref          000000018000b654 f   LIBCMT:localref.obj
 0001:0000a6f8       __updatetlocinfo           000000018000b6f8 f   LIBCMT:localref.obj
 0001:0000a770       _updatetlocinfoEx_nolock   000000018000b770 f   LIBCMT:localref.obj
 0001:0000a7d4       _freefls                   000000018000b7d4 f   LIBCMT:tidtable.obj
 0001:0000a908       _freeptd                   000000018000b908 f   LIBCMT:tidtable.obj
 0001:0000a944       _getptd                    000000018000b944 f   LIBCMT:tidtable.obj
 0001:0000a968       _getptd_noexit             000000018000b968 f   LIBCMT:tidtable.obj
 0001:0000a9ec       _initptd                   000000018000b9ec f   LIBCMT:tidtable.obj
 0001:0000aab0       _mtinit                    000000018000bab0 f   LIBCMT:tidtable.obj
 0001:0000ab30       _mtterm                    000000018000bb30 f   LIBCMT:tidtable.obj
 0001:0000ab54       _msize                     000000018000bb54 f   LIBCMT:msize.obj
 0001:0000ab90       __C_specific_handler       000000018000bb90 f   LIBCMT:chandler.obj
 0001:0000ad74       __getlocaleinfo            000000018000bd74 f   LIBCMT:inithelp.obj
 0001:0000af5c       _initp_misc_purevirt       000000018000bf5c f   LIBCMT:inithelp.obj
 0001:0000af64       _callnewh                  000000018000bf64 f   LIBCMT:handler.obj
 0001:0000af98       _initp_heap_handler        000000018000bf98 f   LIBCMT:handler.obj
 0001:0000afa0       __initmbctable             000000018000bfa0 f   LIBCMT:mbctype.obj
 0001:0000b2bc       __updatetmbcinfo           000000018000c2bc f   LIBCMT:mbctype.obj
 0001:0000b378       _setmbcp                   000000018000c378 f   LIBCMT:mbctype.obj
 0001:0000b5bc       _setmbcp_nolock            000000018000c5bc f   LIBCMT:mbctype.obj
 0001:0000b86c       _locterm                   000000018000c86c f   LIBCMT:wsetloca.obj
 0001:0000b8b4       __copy_locale_name         000000018000c8b4 f   LIBCMT:wsetloca.obj
 0001:0000b938       __lc_lctowcs               000000018000c938 f   LIBCMT:wsetloca.obj
 0001:0000b9dc       __lc_wcstolc               000000018000c9dc f   LIBCMT:wsetloca.obj
 0001:0000bc50       _expandlocale              000000018000cc50 f   LIBCMT:wsetloca.obj
 0001:0000c024       _wcscats                   000000018000d024 f   LIBCMT:wsetloca.obj
 0001:0000c08c       _wsetlocale                000000018000d08c f   LIBCMT:wsetloca.obj
 0001:0000c978       _XcptFilter                000000018000d978 f   LIBCMT:winxfltr.obj
 0001:0000cb44       __CppXcptFilter            000000018000db44 f   LIBCMT:winxfltr.obj
 0001:0000cb58       _ioinit                    000000018000db58 f   LIBCMT:ioinit.obj
 0001:0000ce88       _ioterm                    000000018000de88 f   LIBCMT:ioinit.obj
 0001:0000cefc       _setargv                   000000018000defc f   LIBCMT:stdargv.obj
 0001:0000d1b8       _setenvp                   000000018000e1b8 f   LIBCMT:stdenvp.obj
 0001:0000d2ec       __security_init_cookie     000000018000e2ec f   LIBCMT:gs_support.obj
 0001:0000d398       DllMain                    000000018000e398 f   LIBCMT:dllmain.obj
 0001:0000d3a0       __crtGetEnvironmentStringsA 000000018000e3a0 f   LIBCMT:a_env.obj
 0001:0000d494       _RTC_Initialize            000000018000e494 f   LIBCMT:initsect.obj
 0001:0000d4cc       _RTC_Terminate             000000018000e4cc f   LIBCMT:initsect.obj
 0001:0000d67c       __crtGetStringTypeA        000000018000e67c f   LIBCMT:a_str.obj
 0001:0000d6f8       __DestructExceptionObject  000000018000e6f8 f   LIBCMT:frame.obj
 0001:0000d768       ??0bad_exception@std@@QEAA@AEBV01@@Z 000000018000e768 f i LIBCMT:frame.obj
 0001:0000d78c       ??1bad_exception@std@@UEAA@XZ 000000018000e78c f i LIBCMT:frame.obj
 0001:0000d79c       ??_Ebad_exception@std@@UEAAPEAXI@Z 000000018000e79c f i LIBCMT:frame.obj
 0001:0000d79c       ??_Gbad_exception@std@@UEAAPEAXI@Z 000000018000e79c f i LIBCMT:frame.obj
 0001:0000e090       __AdjustPointer            000000018000f090 f   LIBCMT:frame.obj
 0001:0000e0b4       __BuildCatchObject         000000018000f0b4 f   LIBCMT:frame.obj
 0001:0000e16c       __BuildCatchObjectHelper   000000018000f16c f   LIBCMT:frame.obj
 0001:0000e3bc       __CxxCallCatchBlock        000000018000f3bc f   LIBCMT:frame.obj
 0001:0000e5c0       __FrameUnwindFilter        000000018000f5c0 f   LIBCMT:frame.obj
 0001:0000e614       __FrameUnwindToState       000000018000f614 f   LIBCMT:frame.obj
 0001:0000e7a8       __InternalCxxFrameHandler  000000018000f7a8 f   LIBCMT:frame.obj
 0001:0000e9cc       __TypeMatch                000000018000f9cc f   LIBCMT:frame.obj
 0001:0000eafc       ?__GetCurrentState@@YAHPEA_KPEAU_xDISPATCHER_CONTEXT@@PEBU_s_FuncInfo@@@Z 000000018000fafc f   LIBCMT:ehstate.obj
 0001:0000eb24       ?__GetUnwindTryBlock@@YAHPEA_KPEAU_xDISPATCHER_CONTEXT@@PEBU_s_FuncInfo@@@Z 000000018000fb24 f   LIBCMT:ehstate.obj
 0001:0000eb50       ?__SetState@@YAXPEA_KPEAU_xDISPATCHER_CONTEXT@@PEBU_s_FuncInfo@@H@Z 000000018000fb50 f   LIBCMT:ehstate.obj
 0001:0000eb5c       ?__SetUnwindTryBlock@@YAXPEA_KPEAU_xDISPATCHER_CONTEXT@@PEBU_s_FuncInfo@@H@Z 000000018000fb5c f   LIBCMT:ehstate.obj
 0001:0000eb98       ?__StateFromControlPc@@YAHPEBU_s_FuncInfo@@PEAU_xDISPATCHER_CONTEXT@@@Z 000000018000fb98 f   LIBCMT:ehstate.obj
 0001:0000eba0       ?__StateFromIp@@YAHPEBU_s_FuncInfo@@PEAU_xDISPATCHER_CONTEXT@@_J@Z 000000018000fba0 f   LIBCMT:ehstate.obj
 0001:0000ec2c       ?_inconsistency@@YAXXZ     000000018000fc2c f   LIBCMT:hooks.obj
 0001:0000ec4c       ?terminate@@YAXXZ          000000018000fc4c f   LIBCMT:hooks.obj
 0001:0000ec6c       _initp_eh_hooks            000000018000fc6c f   LIBCMT:hooks.obj
 0001:0000ec8c       ?_Type_info_dtor@type_info@@CAXPEAV1@@Z 000000018000fc8c f   LIBCMT:typname.obj
 0001:0000ecf8       _cfltcvt                   000000018000fcf8 f   LIBCMT:cvt.obj
 0001:0000ed1c       _cfltcvt_l                 000000018000fd1c f   LIBCMT:cvt.obj
 0001:0000ed9c       _cftoa_l                   000000018000fd9c f   LIBCMT:cvt.obj
 0001:0000f348       _cftoe_l                   0000000180010348 f   LIBCMT:cvt.obj
 0001:0000f5a4       _cftof_l                   00000001800105a4 f   LIBCMT:cvt.obj
 0001:0000f678       _cftog_l                   0000000180010678 f   LIBCMT:cvt.obj
 0001:0000f7ac       _cropzeros                 00000001800107ac f   LIBCMT:cvt.obj
 0001:0000f7b4       _cropzeros_l               00000001800107b4 f   LIBCMT:cvt.obj
 0001:0000f84c       _fassign                   000000018001084c f   LIBCMT:cvt.obj
 0001:0000f854       _fassign_l                 0000000180010854 f   LIBCMT:cvt.obj
 0001:0000f894       _forcdecpt                 0000000180010894 f   LIBCMT:cvt.obj
 0001:0000f89c       _forcdecpt_l               000000018001089c f   LIBCMT:cvt.obj
 0001:0000f91c       _positive                  000000018001091c f   LIBCMT:cvt.obj
 0001:0000f930       _initp_misc_cfltcvt_tab    0000000180010930 f   LIBCMT:cmiscdat.obj
 0001:0000f96c       _FF_MSGBANNER              000000018001096c f   LIBCMT:crt0msg.obj
 0001:0000f9b0       _GET_RTERRMSG              00000001800109b0 f   LIBCMT:crt0msg.obj
 0001:0000f9e0       _NMSG_WRITE                00000001800109e0 f   LIBCMT:crt0msg.obj
 0001:0000fc50       _mbstowcs_l_helper         0000000180010c50 f   LIBCMT:mbstowcs.obj
 0001:0000fe2c       _mbstowcs_s_l              0000000180010e2c f   LIBCMT:mbstowcs.obj
 0001:0000ff5c       mbstowcs_s                 0000000180010f5c f   LIBCMT:mbstowcs.obj
 0001:0000ff7c       _wcstombs_l_helper         0000000180010f7c f   LIBCMT:wcstombs.obj
 0001:000102ac       _wcstombs_s_l              00000001800112ac f   LIBCMT:wcstombs.obj
 0001:00010398       strcpy_s                   0000000180011398 f   LIBCMT:strcpy_s.obj
 0001:000103fc       _isctype_l                 00000001800113fc f   LIBCMT:isctype.obj
 0001:000104d8       calloc                     00000001800114d8 f   LIBCMT:calloc.obj
 0001:0001051c       wcscpy_s                   000000018001151c f   LIBCMT:wcscpy_s.obj
 0001:000105a0       __chkstk                   00000001800115a0 f   LIBCMT:chkstk.obj
 0001:000105a0       _alloca_probe              00000001800115a0 f   LIBCMT:chkstk.obj
 0001:000105f0       realloc                    00000001800115f0 f   LIBCMT:realloc.obj
 0001:000106c4       _calloc_impl               00000001800116c4 f   LIBCMT:calloc_impl.obj
 0001:00010760       _wcsicmp                   0000000180011760 f   LIBCMT:wcsicmp.obj
 0001:000107e4       _wcsicmp_l                 00000001800117e4 f   LIBCMT:wcsicmp.obj
 0001:000108d4       _isleadbyte_l              00000001800118d4 f i LIBCMT:_wctype.obj
 0001:00010918       isleadbyte                 0000000180011918 f i LIBCMT:_wctype.obj
 0001:00010960       wcsnlen                    0000000180011960 f   LIBCMT:wcslen_s.obj
 0001:00010980       _FindPESection             0000000180011980 f   LIBCMT:pesect.obj
 0001:000109d0       _IsNonwritableInCurrentImage 00000001800119d0 f   LIBCMT:pesect.obj
 0001:00010a20       _ValidateImageBase         0000000180011a20 f   LIBCMT:pesect.obj
 0001:00010a50       _initp_misc_rand_s         0000000180011a50 f   LIBCMT:rand_s.obj
 0001:00010a58       __initstdio                0000000180011a58 f   LIBCMT:_file.obj
 0001:00010af0       __endstdio                 0000000180011af0 f   LIBCMT:_file.obj
 0001:00010b20       __iob_func                 0000000180011b20 f   LIBCMT:_file.obj
 0001:00010b28       _lock_file                 0000000180011b28 f   LIBCMT:_file.obj
 0001:00010b90       _lock_file2                0000000180011b90 f   LIBCMT:_file.obj
 0001:00010bc4       _unlock_file               0000000180011bc4 f   LIBCMT:_file.obj
 0001:00010c14       _unlock_file2              0000000180011c14 f   LIBCMT:_file.obj
 0001:00010c34       _fileno                    0000000180011c34 f   LIBCMT:fileno.obj
 0001:00010c5c       _isatty                    0000000180011c5c f   LIBCMT:isatty.obj
 0001:00010cbc       _write                     0000000180011cbc f   LIBCMT:write.obj
 0001:00010da0       _write_nolock              0000000180011da0 f   LIBCMT:write.obj
 0001:00011594       _lseeki64                  0000000180012594 f   LIBCMT:lseeki64.obj
 0001:0001167c       _lseeki64_nolock           000000018001267c f   LIBCMT:lseeki64.obj
 0001:00011710       _getbuf                    0000000180012710 f   LIBCMT:_getbuf.obj
 0001:00011764       _output_s_l                0000000180012764 f   LIBCMT:outputs.obj
 0001:000122bc       _get_printf_count_output   00000001800132bc f   LIBCMT:printf.obj
 0001:000122d4       _wctomb_s_l                00000001800132d4 f   LIBCMT:wctomb.obj
 0001:00012460       wctomb_s                   0000000180013460 f   LIBCMT:wctomb.obj
 0001:00012474       __free_lconv_mon           0000000180013474 f   LIBCMT:initmon.obj
 0001:00012580       __init_monetary            0000000180013580 f   LIBCMT:initmon.obj
 0001:00012a80       __free_lconv_num           0000000180013a80 f   LIBCMT:initnum.obj
 0001:00012aec       __init_numeric             0000000180013aec f   LIBCMT:initnum.obj
 0001:00012db4       __free_lc_time             0000000180013db4 f   LIBCMT:inittime.obj
 0001:000131b0       __init_time                00000001800141b0 f   LIBCMT:inittime.obj
 0001:00013de0       _local_unwind              0000000180014de0 f   LIBCMT:jmpuwind.obj
 0001:00013e10       _NLG_Notify                0000000180014e10 f   LIBCMT:jmpuwind.obj
 0001:00013e30       __NLG_Dispatch2            0000000180014e30 f   LIBCMT:jmpuwind.obj
 0001:00013e40       __NLG_Return2              0000000180014e40 f   LIBCMT:jmpuwind.obj
 0001:00013e44       strncpy_s                  0000000180014e44 f   LIBCMT:strncpy_s.obj
 0001:0001406c       __crtGetLocaleInfoA        000000018001506c f   LIBCMT:a_loc.obj
 0001:000140f0       _get_fpsr                  00000001800150f0 f   LIBCMT:fpsr.obj
 0001:00014100       _set_fpsr                  0000000180015100 f   LIBCMT:fpsr.obj
 0001:0001410a       _fclrf                     000000018001510a f   LIBCMT:fpsr.obj
 0001:0001411e       _frnd                      000000018001511e f   LIBCMT:fpsr.obj
 0001:00014140       wcscat_s                   0000000180015140 f   LIBCMT:wcscat_s.obj
 0001:000141c8       wcscmp                     00000001800151c8 f   LIBCMT:wcscmp.obj
 0001:00014204       wcscspn                    0000000180015204 f   LIBCMT:wcscspn.obj
 0001:00014244       wcsncmp                    0000000180015244 f   LIBCMT:wcsncmp.obj
 0001:00014270       wcsncpy_s                  0000000180015270 f   LIBCMT:wcsncpy_s.obj
 0001:0001433c       wcspbrk                    000000018001533c f   LIBCMT:wcspbrk.obj
 0001:00014a34       __get_qualified_locale     0000000180015a34 f   LIBCMT:getqloc.obj
 0001:00015464       __get_qualified_locale_downlevel 0000000180016464 f   LIBCMT:getqloc_downlevel.obj
 0001:000156fc       ?_ValidateExecute@@YAHP6A_JXZ@Z 00000001800166fc f   LIBCMT:validate.obj
 0001:000156fc       ?_ValidateRead@@YAHPEBXI@Z 00000001800166fc f   LIBCMT:validate.obj
 0001:000156fc       ?_ValidateWrite@@YAHPEAXI@Z 00000001800166fc f   LIBCMT:validate.obj
 0001:00015720       _CallSettingFrame          0000000180016720 f   LIBCMT:handlers.obj
 0001:00015760       _GetNextInstrOffset        0000000180016760 f   LIBCMT:handlers.obj
 0001:00015768       strrchr                    0000000180016768 f   LIBCMT:strrchr.obj
 0001:000158ac       _fptostr                   00000001800168ac f   LIBCMT:_fptostr.obj
 0001:00015978       __crt_atoflt_l             0000000180016978 f   LIBCMT:atodbl.obj
 0001:00015a48       _atodbl_l                  0000000180016a48 f   LIBCMT:atodbl.obj
 0001:00015b10       _atoflt_l                  0000000180016b10 f   LIBCMT:atodbl.obj
 0001:00015b18       __dtold                    0000000180016b18 f   LIBCMT:cfout.obj
 0001:00015be8       _fltout2                   0000000180016be8 f   LIBCMT:cfout.obj
 0001:00015ca0       _fptrap                    0000000180016ca0 f   LIBCMT:crt0fp.obj
 0001:00015cac       _set_error_mode            0000000180016cac f   LIBCMT:errmode.obj
 0001:00015cec       __crtMessageBoxW           0000000180016cec f   LIBCMT:crtmboxw.obj
 0001:00015f60       _towlower_l                0000000180016f60 f   LIBCMT:towlower.obj
 0001:0001602c       iswctype                   000000018001702c f   LIBCMT:iswctype.obj
 0001:00016094       _fflush_nolock             0000000180017094 f   LIBCMT:fflush.obj
 0001:000160e0       _flush                     00000001800170e0 f   LIBCMT:fflush.obj
 0001:0001615c       _flushall                  000000018001715c f   LIBCMT:fflush.obj
 0001:00016250       _fcloseall                 0000000180017250 f   LIBCMT:closeall.obj
 0001:000162f8       __lock_fhandle             00000001800172f8 f   LIBCMT:osfinfo.obj
 0001:00016390       _free_osfhnd               0000000180017390 f   LIBCMT:osfinfo.obj
 0001:0001643c       _get_osfhandle             000000018001743c f   LIBCMT:osfinfo.obj
 0001:000164b0       _unlock_fhandle            00000001800174b0 f   LIBCMT:osfinfo.obj
 0001:000164dc       _mbtowc_l                  00000001800174dc f   LIBCMT:mbtowc.obj
 0001:00016630       mbtowc                     0000000180017630 f   LIBCMT:mbtowc.obj
 0001:00016638       _putwch_nolock             0000000180017638 f   LIBCMT:putwch.obj
 0001:00016694       _itow_s                    0000000180017694 f   LIBCMT:xtows.obj
 0001:000167cc       _wtol                      00000001800177cc f   LIBCMT:wtox.obj
 0001:000167d8       wcschr                     00000001800177d8 f   LIBCMT:wcschr.obj
 0001:00016864       _wcsnicmp                  0000000180017864 f   LIBCMT:wcsnicmp.obj
 0001:000168fc       _wcsnicmp_l                00000001800178fc f   LIBCMT:wcsnicmp.obj
 0001:00016a14       _ld12tod                   0000000180017a14 f   LIBCMT:intrncvt.obj
 0001:00016fcc       _ld12tof                   0000000180017fcc f   LIBCMT:intrncvt.obj
 0001:00017584       __strgtold12_l             0000000180018584 f   LIBCMT:strgtold.obj
 0001:00017de8       $I10_OUTPUT                0000000180018de8 f   LIBCMT:x10fout.obj
 0001:000188c0       _commit                    00000001800198c0 f   LIBCMT:commit.obj
 0001:00018998       _fclose_nolock             0000000180019998 f   LIBCMT:fclose.obj
 0001:00018a14       fclose                     0000000180019a14 f   LIBCMT:fclose.obj
 0001:00018a7c       __termconout               0000000180019a7c f   LIBCMT:initcon.obj
 0001:00018a9c       __initconout               0000000180019a9c f   LIBCMT:initcon.obj
 0001:00018cc0       wcstol                     0000000180019cc0 f   LIBCMT:wcstol.obj
 0001:00018cc8       __mtold12                  0000000180019cc8 f   LIBCMT:mantold.obj
 0001:00018eec       _close                     0000000180019eec f   LIBCMT:close.obj
 0001:00018fb0       _close_nolock              0000000180019fb0 f   LIBCMT:close.obj
 0001:0001906c       _freebuf                   000000018001a06c f   LIBCMT:_freebuf.obj
 0001:000190a4       _wchartodigit              000000018001a0a4 f   LIBCMT:wchtodig.obj
 0001:00019240       IsProcessorFeaturePresent  000000018001a240 f   kernel32:KERNEL32.dll
 0001:00019246       RtlUnwindEx                000000018001a246 f   kernel32:KERNEL32.dll
 0001:0001924c       __delayLoadHelper2         000000018001a24c f   DelayImp:delayhlp.obj
 0002:00000000       __imp_GetModuleHandleA     000000018001b000     kernel32:KERNEL32.dll
 0002:00000008       __imp_WideCharToMultiByte  000000018001b008     kernel32:KERNEL32.dll
 0002:00000010       __imp_EncodePointer        000000018001b010     kernel32:KERNEL32.dll
 0002:00000018       __imp_DecodePointer        000000018001b018     kernel32:KERNEL32.dll
 0002:00000020       __imp_EnterCriticalSection 000000018001b020     kernel32:KERNEL32.dll
 0002:00000028       __imp_LeaveCriticalSection 000000018001b028     kernel32:KERNEL32.dll
 0002:00000030       __imp_DeleteCriticalSection 000000018001b030     kernel32:KERNEL32.dll
 0002:00000038       __imp_MultiByteToWideChar  000000018001b038     kernel32:KERNEL32.dll
 0002:00000040       __imp_GetStringTypeW       000000018001b040     kernel32:KERNEL32.dll
 0002:00000048       __imp_IsProcessorFeaturePresent 000000018001b048     kernel32:KERNEL32.dll
 0002:00000050       __imp_IsDebuggerPresent    000000018001b050     kernel32:KERNEL32.dll
 0002:00000058       __imp_GetLastError         000000018001b058     kernel32:KERNEL32.dll
 0002:00000060       __imp_HeapFree             000000018001b060     kernel32:KERNEL32.dll
 0002:00000068       __imp_GetCommandLineA      000000018001b068     kernel32:KERNEL32.dll
 0002:00000070       __imp_GetCurrentThreadId   000000018001b070     kernel32:KERNEL32.dll
 0002:00000078       __imp_GetCPInfo            000000018001b078     kernel32:KERNEL32.dll
 0002:00000080       __imp_RtlPcToFileHeader    000000018001b080     kernel32:KERNEL32.dll
 0002:00000088       __imp_RaiseException       000000018001b088     kernel32:KERNEL32.dll
 0002:00000090       __imp_RtlLookupFunctionEntry 000000018001b090     kernel32:KERNEL32.dll
 0002:00000098       __imp_RtlUnwindEx          000000018001b098     kernel32:KERNEL32.dll
 0002:000000a0       __imp_HeapAlloc            000000018001b0a0     kernel32:KERNEL32.dll
 0002:000000a8       __imp_RtlCaptureContext    000000018001b0a8     kernel32:KERNEL32.dll
 0002:000000b0       __imp_RtlVirtualUnwind     000000018001b0b0     kernel32:KERNEL32.dll
 0002:000000b8       __imp_UnhandledExceptionFilter 000000018001b0b8     kernel32:KERNEL32.dll
 0002:000000c0       __imp_SetUnhandledExceptionFilter 000000018001b0c0     kernel32:KERNEL32.dll
 0002:000000c8       __imp_SetLastError         000000018001b0c8     kernel32:KERNEL32.dll
 0002:000000d0       __imp_InitializeCriticalSectionAndSpinCount 000000018001b0d0     kernel32:KERNEL32.dll
 0002:000000d8       __imp_Sleep                000000018001b0d8     kernel32:KERNEL32.dll
 0002:000000e0       __imp_GetCurrentProcess    000000018001b0e0     kernel32:KERNEL32.dll
 0002:000000e8       __imp_TerminateProcess     000000018001b0e8     kernel32:KERNEL32.dll
 0002:000000f0       __imp_TlsAlloc             000000018001b0f0     kernel32:KERNEL32.dll
 0002:000000f8       __imp_TlsGetValue          000000018001b0f8     kernel32:KERNEL32.dll
 0002:00000100       __imp_TlsSetValue          000000018001b100     kernel32:KERNEL32.dll
 0002:00000108       __imp_TlsFree              000000018001b108     kernel32:KERNEL32.dll
 0002:00000110       __imp_GetStartupInfoW      000000018001b110     kernel32:KERNEL32.dll
 0002:00000118       __imp_GetModuleHandleW     000000018001b118     kernel32:KERNEL32.dll
 0002:00000120       __imp_GetProcAddress       000000018001b120     kernel32:KERNEL32.dll
 0002:00000128       __imp_LCMapStringW         000000018001b128     kernel32:KERNEL32.dll
 0002:00000130       __imp_GetLocaleInfoW       000000018001b130     kernel32:KERNEL32.dll
 0002:00000138       __imp_IsValidLocale        000000018001b138     kernel32:KERNEL32.dll
 0002:00000140       __imp_GetUserDefaultLCID   000000018001b140     kernel32:KERNEL32.dll
 0002:00000148       __imp_EnumSystemLocalesW   000000018001b148     kernel32:KERNEL32.dll
 0002:00000150       __imp_ExitProcess          000000018001b150     kernel32:KERNEL32.dll
 0002:00000158       __imp_GetModuleHandleExW   000000018001b158     kernel32:KERNEL32.dll
 0002:00000160       __imp_GetProcessHeap       000000018001b160     kernel32:KERNEL32.dll
 0002:00000168       __imp_HeapSize             000000018001b168     kernel32:KERNEL32.dll
 0002:00000170       __imp_IsValidCodePage      000000018001b170     kernel32:KERNEL32.dll
 0002:00000178       __imp_GetACP               000000018001b178     kernel32:KERNEL32.dll
 0002:00000180       __imp_GetOEMCP             000000018001b180     kernel32:KERNEL32.dll
 0002:00000188       __imp_GetStdHandle         000000018001b188     kernel32:KERNEL32.dll
 0002:00000190       __imp_GetFileType          000000018001b190     kernel32:KERNEL32.dll
 0002:00000198       __imp_GetModuleFileNameA   000000018001b198     kernel32:KERNEL32.dll
 0002:000001a0       __imp_QueryPerformanceCounter 000000018001b1a0     kernel32:KERNEL32.dll
 0002:000001a8       __imp_GetCurrentProcessId  000000018001b1a8     kernel32:KERNEL32.dll
 0002:000001b0       __imp_GetSystemTimeAsFileTime 000000018001b1b0     kernel32:KERNEL32.dll
 0002:000001b8       __imp_GetEnvironmentStringsW 000000018001b1b8     kernel32:KERNEL32.dll
 0002:000001c0       __imp_FreeEnvironmentStringsW 000000018001b1c0     kernel32:KERNEL32.dll
 0002:000001c8       __imp_WriteFile            000000018001b1c8     kernel32:KERNEL32.dll
 0002:000001d0       __imp_GetModuleFileNameW   000000018001b1d0     kernel32:KERNEL32.dll
 0002:000001d8       __imp_HeapReAlloc          000000018001b1d8     kernel32:KERNEL32.dll
 0002:000001e0       __imp_FreeLibrary          000000018001b1e0     kernel32:KERNEL32.dll
 0002:000001e8       __imp_LoadLibraryExW       000000018001b1e8     kernel32:KERNEL32.dll
 0002:000001f0       __imp_GetConsoleCP         000000018001b1f0     kernel32:KERNEL32.dll
 0002:000001f8       __imp_GetConsoleMode       000000018001b1f8     kernel32:KERNEL32.dll
 0002:00000200       __imp_SetFilePointerEx     000000018001b200     kernel32:KERNEL32.dll
 0002:00000208       __imp_OutputDebugStringW   000000018001b208     kernel32:KERNEL32.dll
 0002:00000210       __imp_SetStdHandle         000000018001b210     kernel32:KERNEL32.dll
 0002:00000218       __imp_WriteConsoleW        000000018001b218     kernel32:KERNEL32.dll
 0002:00000220       __imp_FlushFileBuffers     000000018001b220     kernel32:KERNEL32.dll
 0002:00000228       __imp_CreateFileW          000000018001b228     kernel32:KERNEL32.dll
 0002:00000230       __imp_CloseHandle          000000018001b230     kernel32:KERNEL32.dll
 0002:00000238       __imp_LoadLibraryExA       000000018001b238     kernel32:KERNEL32.dll
 0002:00000240       \177KERNEL32_NULL_THUNK_DATA 000000018001b240     kernel32:KERNEL32.dll
 0002:00000248       __xc_a                     000000018001b248     LIBCMT:crt0init.obj
 0002:00000288       _register_addon_           000000018001b288     hanaRouting.obj
 0002:00000290       __xc_z                     000000018001b290     LIBCMT:crt0init.obj
 0002:00000298       __xi_a                     000000018001b298     LIBCMT:crt0init.obj
 0002:000002c0       __xi_z                     000000018001b2c0     LIBCMT:crt0init.obj
 0002:000002c8       __xp_a                     000000018001b2c8     LIBCMT:crt0init.obj
 0002:000002e8       __xp_z                     000000018001b2e8     LIBCMT:crt0init.obj
 0002:000002f0       __xt_a                     000000018001b2f0     LIBCMT:crt0init.obj
 0002:000002f8       __xt_z                     000000018001b2f8     LIBCMT:crt0init.obj
 0002:00000340       __sz_node_exe              000000018001b340     node:node.exe
 0002:00000cf0       ??_C@_0BC@CIJDGCDI@permission?5denied?$AA@ 000000018001bcf0     libcpmt:syserror.obj
 0002:00000d08       ??_C@_0M@MIDIAGJP@file?5exists?$AA@ 000000018001bd08     libcpmt:syserror.obj
 0002:00000d18       ??_C@_0P@FDINDDOK@no?5such?5device?$AA@ 000000018001bd18     libcpmt:syserror.obj
 0002:00000d28       ??_C@_0BC@EJHOMAAK@filename?5too?5long?$AA@ 000000018001bd28     libcpmt:syserror.obj
 0002:00000d40       ??_C@_0BI@NGCEHDD@device?5or?5resource?5busy?$AA@ 000000018001bd40     libcpmt:syserror.obj
 0002:00000d58       ??_C@_08GLNPIFBN@io?5error?$AA@ 000000018001bd58     libcpmt:syserror.obj
 0002:00000d68       ??_C@_0BE@JIDOCPHM@directory?5not?5empty?$AA@ 000000018001bd68     libcpmt:syserror.obj
 0002:00000d80       ??_C@_0BB@FCMFBGOM@invalid?5argument?$AA@ 000000018001bd80     libcpmt:syserror.obj
 0002:00000d98       ??_C@_0BD@IJDJKDEA@no?5space?5on?5device?$AA@ 000000018001bd98     libcpmt:syserror.obj
 0002:00000db0       ??_C@_0BK@NDOCBPGE@no?5such?5file?5or?5directory?$AA@ 000000018001bdb0     libcpmt:syserror.obj
 0002:00000dd0       ??_C@_0BH@KEFGLDAF@function?5not?5supported?$AA@ 000000018001bdd0     libcpmt:syserror.obj
 0002:00000de8       ??_C@_0BC@NJECKMKE@no?5lock?5available?$AA@ 000000018001bde8     libcpmt:syserror.obj
 0002:00000e00       ??_C@_0BC@ENOOLCNF@not?5enough?5memory?$AA@ 000000018001be00     libcpmt:syserror.obj
 0002:00000e18       ??_C@_0BP@LKNGHENJ@resource?5unavailable?5try?5again?$AA@ 000000018001be18     libcpmt:syserror.obj
 0002:00000e38       ??_C@_0BC@PPHBOELF@cross?5device?5link?$AA@ 000000018001be38     libcpmt:syserror.obj
 0002:00000e50       ??_C@_0BD@MOLBPMEA@operation?5canceled?$AA@ 000000018001be50     libcpmt:syserror.obj
 0002:00000e68       ??_C@_0BE@GHAFMPAH@too?5many?5files?5open?$AA@ 000000018001be68     libcpmt:syserror.obj
 0002:00000e80       ??_C@_0BC@FNODOBAE@permission_denied?$AA@ 000000018001be80     libcpmt:syserror.obj
 0002:00000e98       ??_C@_0P@LNDJPBFK@address_in_use?$AA@ 000000018001be98     libcpmt:syserror.obj
 0002:00000ea8       ??_C@_0BG@IPMGOJF@address_not_available?$AA@ 000000018001bea8     libcpmt:syserror.obj
 0002:00000ec0       ??_C@_0BN@LCBDHODA@address_family_not_supported?$AA@ 000000018001bec0     libcpmt:syserror.obj
 0002:00000ee0       ??_C@_0BP@FOJJHMCC@connection_already_in_progress?$AA@ 000000018001bee0     libcpmt:syserror.obj
 0002:00000f00       ??_C@_0BE@DLHHIBGN@bad_file_descriptor?$AA@ 000000018001bf00     libcpmt:syserror.obj
 0002:00000f18       ??_C@_0BD@OJMJDIGI@connection_aborted?$AA@ 000000018001bf18     libcpmt:syserror.obj
 0002:00000f30       ??_C@_0BD@NGKCIFEP@connection_refused?$AA@ 000000018001bf30     libcpmt:syserror.obj
 0002:00000f48       ??_C@_0BB@JOANDNCK@connection_reset?$AA@ 000000018001bf48     libcpmt:syserror.obj
 0002:00000f60       ??_C@_0BN@JLJNLKLK@destination_address_required?$AA@ 000000018001bf60     libcpmt:syserror.obj
 0002:00000f80       ??_C@_0M@IJGMGFGP@bad_address?$AA@ 000000018001bf80     libcpmt:syserror.obj
 0002:00000f90       ??_C@_0BB@KKNHPPIN@host_unreachable?$AA@ 000000018001bf90     libcpmt:syserror.obj
 0002:00000fa8       ??_C@_0BG@DJGBJIIK@operation_in_progress?$AA@ 000000018001bfa8     libcpmt:syserror.obj
 0002:00000fc0       ??_C@_0M@EGEKIIMP@interrupted?$AA@ 000000018001bfc0     libcpmt:syserror.obj
 0002:00000fd0       ??_C@_0BB@FFIHMIPJ@invalid_argument?$AA@ 000000018001bfd0     libcpmt:syserror.obj
 0002:00000fe8       ??_C@_0BC@FIFLCHLO@already_connected?$AA@ 000000018001bfe8     libcpmt:syserror.obj
 0002:00001000       ??_C@_0BE@GJJJJDDA@too_many_files_open?$AA@ 000000018001c000     libcpmt:syserror.obj
 0002:00001018       ??_C@_0N@HPMLKHPL@message_size?$AA@ 000000018001c018     libcpmt:syserror.obj
 0002:00001028       ??_C@_0BC@LEEIKBAL@filename_too_long?$AA@ 000000018001c028     libcpmt:syserror.obj
 0002:00001040       ??_C@_0N@FCPALPJK@network_down?$AA@ 000000018001c040     libcpmt:syserror.obj
 0002:00001050       ??_C@_0O@EHNDLHIG@network_reset?$AA@ 000000018001c050     libcpmt:syserror.obj
 0002:00001060       ??_C@_0BE@JFNJIDNF@network_unreachable?$AA@ 000000018001c060     libcpmt:syserror.obj
 0002:00001078       ??_C@_0BA@FDIJKJCL@no_buffer_space?$AA@ 000000018001c078     libcpmt:syserror.obj
 0002:00001088       ??_C@_0BD@JHIHCGKP@no_protocol_option?$AA@ 000000018001c088     libcpmt:syserror.obj
 0002:000010a0       ??_C@_0O@GBCLHHD@not_connected?$AA@ 000000018001c0a0     libcpmt:syserror.obj
 0002:000010b0       ??_C@_0N@IMHKKLEM@not_a_socket?$AA@ 000000018001c0b0     libcpmt:syserror.obj
 0002:000010c0       ??_C@_0BI@ICEIDKLJ@operation_not_supported?$AA@ 000000018001c0c0     libcpmt:syserror.obj
 0002:000010d8       ??_C@_0BH@KAPBAIJF@protocol_not_supported?$AA@ 000000018001c0d8     libcpmt:syserror.obj
 0002:000010f0       ??_C@_0BE@GAOJJFPC@wrong_protocol_type?$AA@ 000000018001c0f0     libcpmt:syserror.obj
 0002:00001108       ??_C@_09NCHNLHPG@timed_out?$AA@ 000000018001c108     libcpmt:syserror.obj
 0002:00001118       ??_C@_0BG@GDGHKFDH@operation_would_block?$AA@ 000000018001c118     libcpmt:syserror.obj
 0002:00001130       ??_C@_0BN@LKKBCCDB@address?5family?5not?5supported?$AA@ 000000018001c130     libcpmt:syserror.obj
 0002:00001150       ??_C@_0P@LDMLAFHI@address?5in?5use?$AA@ 000000018001c150     libcpmt:syserror.obj
 0002:00001160       ??_C@_0BG@DHPCNBJB@address?5not?5available?$AA@ 000000018001c160     libcpmt:syserror.obj
 0002:00001178       ??_C@_0BC@DFIBIBIL@already?5connected?$AA@ 000000018001c178     libcpmt:syserror.obj
 0002:00001190       ??_C@_0BH@CAKOHOMI@argument?5list?5too?5long?$AA@ 000000018001c190     libcpmt:syserror.obj
 0002:000011a8       ??_C@_0BH@CGIMPKIM@argument?5out?5of?5domain?$AA@ 000000018001c1a8     libcpmt:syserror.obj
 0002:000011c0       ??_C@_0M@KGHGGJGL@bad?5address?$AA@ 000000018001c1c0     libcpmt:syserror.obj
 0002:000011d0       ??_C@_0BE@MPJPGCEO@bad?5file?5descriptor?$AA@ 000000018001c1d0     libcpmt:syserror.obj
 0002:000011e8       ??_C@_0M@PMMIEFCP@bad?5message?$AA@ 000000018001c1e8     libcpmt:syserror.obj
 0002:000011f8       ??_C@_0M@KPHOFDBE@broken?5pipe?$AA@ 000000018001c1f8     libcpmt:syserror.obj
 0002:00001208       ??_C@_0BD@MGNDDEGM@connection?5aborted?$AA@ 000000018001c208     libcpmt:syserror.obj
 0002:00001220       ??_C@_0BP@KAIHPOGN@connection?5already?5in?5progress?$AA@ 000000018001c220     libcpmt:syserror.obj
 0002:00001240       ??_C@_0BD@PJLIIJEL@connection?5refused?$AA@ 000000018001c240     libcpmt:syserror.obj
 0002:00001258       ??_C@_0BB@IECNJNOI@connection?5reset?$AA@ 000000018001c258     libcpmt:syserror.obj
 0002:00001270       ??_C@_0BN@KDMIFEIP@destination?5address?5required?$AA@ 000000018001c270     libcpmt:syserror.obj
 0002:00001290       ??_C@_0BI@BNCLIGPB@executable?5format?5error?$AA@ 000000018001c290     libcpmt:syserror.obj
 0002:000012a8       ??_C@_0P@DNAJLBJK@file?5too?5large?$AA@ 000000018001c2a8     libcpmt:syserror.obj
 0002:000012b8       ??_C@_0BB@DHFDFGDM@host?5unreachable?$AA@ 000000018001c2b8     libcpmt:syserror.obj
 0002:000012d0       ??_C@_0BD@JPHBMONG@identifier?5removed?$AA@ 000000018001c2d0     libcpmt:syserror.obj
 0002:000012e8       ??_C@_0BG@CDNPAGJK@illegal?5byte?5sequence?$AA@ 000000018001c2e8     libcpmt:syserror.obj
 0002:00001300       ??_C@_0CD@BNPLBMNA@inappropriate?5io?5control?5operati@ 000000018001c300     libcpmt:syserror.obj
 0002:00001328       ??_C@_0N@OHAFKDEK@invalid?5seek?$AA@ 000000018001c328     libcpmt:syserror.obj
 0002:00001338       ??_C@_0P@FLLDBIDK@is?5a?5directory?$AA@ 000000018001c338     libcpmt:syserror.obj
 0002:00001348       ??_C@_0N@IFLPBIOP@message?5size?$AA@ 000000018001c348     libcpmt:syserror.obj
 0002:00001358       ??_C@_0N@KIIEAAIO@network?5down?$AA@ 000000018001c358     libcpmt:syserror.obj
 0002:00001368       ??_C@_0O@FNPDBHEE@network?5reset?$AA@ 000000018001c368     libcpmt:syserror.obj
 0002:00001378       ??_C@_0BE@IFNCKGE@network?5unreachable?$AA@ 000000018001c378     libcpmt:syserror.obj
 0002:00001390       ??_C@_0BA@PFFCAOFK@no?5buffer?5space?$AA@ 000000018001c390     libcpmt:syserror.obj
 0002:000013a0       ??_C@_0BB@IEPBLJHK@no?5child?5process?$AA@ 000000018001c3a0     libcpmt:syserror.obj
 0002:000013b8       ??_C@_07PLECNNKG@no?5link?$AA@ 000000018001c3b8     libcpmt:syserror.obj
 0002:000013c0       ??_C@_0BF@PBGGPKKE@no?5message?5available?$AA@ 000000018001c3c0     libcpmt:syserror.obj
 0002:000013d8       ??_C@_0L@EDOLMPAK@no?5message?$AA@ 000000018001c3d8     libcpmt:syserror.obj
 0002:000013e8       ??_C@_0BD@EAMBFIDF@no?5protocol?5option?$AA@ 000000018001c3e8     libcpmt:syserror.obj
 0002:00001400       ??_C@_0BE@MKFDAFMP@no?5stream?5resources?$AA@ 000000018001c400     libcpmt:syserror.obj
 0002:00001418       ??_C@_0BK@IMCPHCBI@no?5such?5device?5or?5address?$AA@ 000000018001c418     libcpmt:syserror.obj
 0002:00001438       ??_C@_0BA@ENLPPKBN@no?5such?5process?$AA@ 000000018001c438     libcpmt:syserror.obj
 0002:00001448       ??_C@_0BA@DOCPFFJG@not?5a?5directory?$AA@ 000000018001c448     libcpmt:syserror.obj
 0002:00001458       ??_C@_0N@POEIPGGF@not?5a?5socket?$AA@ 000000018001c458     libcpmt:syserror.obj
 0002:00001468       ??_C@_0N@LGAPMMPI@not?5a?5stream?$AA@ 000000018001c468     libcpmt:syserror.obj
 0002:00001478       ??_C@_0O@GLMIBBEG@not?5connected?$AA@ 000000018001c478     libcpmt:syserror.obj
 0002:00001488       ??_C@_0O@NHEDABJP@not?5supported?$AA@ 000000018001c488     libcpmt:syserror.obj
 0002:00001498       ??_C@_0BG@KDKHOPCO@operation?5in?5progress?$AA@ 000000018001c498     libcpmt:syserror.obj
 0002:000014b0       ??_C@_0BI@OHIEJAAB@operation?5not?5permitted?$AA@ 000000018001c4b0     libcpmt:syserror.obj
 0002:000014c8       ??_C@_0BI@LNEGIFLN@operation?5not?5supported?$AA@ 000000018001c4c8     libcpmt:syserror.obj
 0002:000014e0       ??_C@_0BG@OEMDKMEE@operation?5would?5block?$AA@ 000000018001c4e0     libcpmt:syserror.obj
 0002:000014f8       ??_C@_0L@BLPOFLNJ@owner?5dead?$AA@ 000000018001c4f8     libcpmt:syserror.obj
 0002:00001508       ??_C@_0P@FNPOCJBE@protocol?5error?$AA@ 000000018001c508     libcpmt:syserror.obj
 0002:00001518       ??_C@_0BH@JPPPLHJB@protocol?5not?5supported?$AA@ 000000018001c518     libcpmt:syserror.obj
 0002:00001530       ??_C@_0BG@EICBIHDP@read?5only?5file?5system?$AA@ 000000018001c530     libcpmt:syserror.obj
 0002:00001548       ??_C@_0BO@BJBOMOEJ@resource?5deadlock?5would?5occur?$AA@ 000000018001c548     libcpmt:syserror.obj
 0002:00001568       ??_C@_0BE@GOIPJJHG@result?5out?5of?5range?$AA@ 000000018001c568     libcpmt:syserror.obj
 0002:00001580       ??_C@_0BG@MPLKFPAE@state?5not?5recoverable?$AA@ 000000018001c580     libcpmt:syserror.obj
 0002:00001598       ??_C@_0P@DIIFGFCG@stream?5timeout?$AA@ 000000018001c598     libcpmt:syserror.obj
 0002:000015a8       ??_C@_0P@IPFDMIFL@text?5file?5busy?$AA@ 000000018001c5a8     libcpmt:syserror.obj
 0002:000015b8       ??_C@_09KJPPMAOI@timed?5out?$AA@ 000000018001c5b8     libcpmt:syserror.obj
 0002:000015c8       ??_C@_0BO@HACHBEKI@too?5many?5files?5open?5in?5system?$AA@ 000000018001c5c8     libcpmt:syserror.obj
 0002:000015e8       ??_C@_0P@HCOMKFCC@too?5many?5links?$AA@ 000000018001c5e8     libcpmt:syserror.obj
 0002:000015f8       ??_C@_0BO@EFGOJEF@too?5many?5symbolic?5link?5levels?$AA@ 000000018001c5f8     libcpmt:syserror.obj
 0002:00001618       ??_C@_0BA@KGKGOOJA@value?5too?5large?$AA@ 000000018001c618     libcpmt:syserror.obj
 0002:00001628       ??_C@_0BE@MIEJDDNH@wrong?5protocol?5type?$AA@ 000000018001c628     libcpmt:syserror.obj
 0002:00001698       ??_7_Facet_base@std@@6B@   000000018001c698     libcpmt:locale0.obj
 0002:000016b8       ??_7_Locimp@locale@std@@6B@ 000000018001c6b8     libcpmt:locale0.obj
 0002:000016d0       ??_C@_01NBENCBCI@?$CK?$AA@ 000000018001c6d0     libcpmt:locale0.obj
 0002:000016d4       ??_C@_01GFHCPBMG@C?$AA@    000000018001c6d4     libcpmt:locale0.obj
 0002:000016d8       ?_BADOFF@std@@3_JB         000000018001c6d8     libcpmt:ios.obj
 0002:000016e8       ??_7bad_alloc@std@@6B@     000000018001c6e8     libcpmt:xthrow.obj
 0002:000016f8       ??_C@_0P@GHFPNOJB@bad?5allocation?$AA@ 000000018001c6f8     libcpmt:xthrow.obj
 0002:00001710       ??_7logic_error@std@@6B@   000000018001c710     libcpmt:xthrow.obj
 0002:00001728       ??_7length_error@std@@6B@  000000018001c728     libcpmt:xthrow.obj
 0002:00001740       ??_7out_of_range@std@@6B@  000000018001c740     libcpmt:xthrow.obj
 0002:00001758       ??_7runtime_error@std@@6B@ 000000018001c758     libcpmt:xthrow.obj
 0002:00001770       ??_7?$ctype@D@std@@6B@     000000018001c770     libcpmt:locale.obj
 0002:000017d0       ??_7?$num_put@DV?$ostreambuf_iterator@DU?$char_traits@D@std@@@std@@@std@@6B@ 000000018001c7d0     libcpmt:locale.obj
 0002:00001830       ??_7?$numpunct@D@std@@6B@  000000018001c830     libcpmt:locale.obj
 0002:00001870       ??_C@_11LOCGONAA@?$AA?$AA@ 000000018001c870     libcpmt:wlocale.obj
 0002:00001874       ??_C@_01JOAMLHOP@?9?$AA@   000000018001c874     libcpmt:wlocale.obj
 0002:00001958       __real@0000000000000000    000000018001c958     libcpmt:xprec.obj
 0002:00001a00       ??_C@_06MEIMCGCF@_hypot?$AA@ 000000018001ca00     LIBCMT:hypot.obj
 0002:00001a08       _pDefaultRawDllMain        000000018001ca08     LIBCMT:dllcrt0.obj
 0002:00001a08       _pRawDllMain               000000018001ca08     LIBCMT:dllcrt0.obj
 0002:00001af0       ??_7type_info@@6B@         000000018001caf0     LIBCMT:typinfo.obj
 0002:00001af8       _FPinit                    000000018001caf8     LIBCMT:fpinit.obj
 0002:00001b08       ??_7exception@std@@6B@     000000018001cb08     LIBCMT:stdexcpt.obj
 0002:00001b18       ??_C@_0BC@EOODALEL@Unknown?5exception?$AA@ 000000018001cb18     LIBCMT:stdexcpt.obj
 0002:00001b30       __newctype                 000000018001cb30     LIBCMT:ctype.obj
 0002:00001e30       _wctype                    000000018001ce30     LIBCMT:ctype.obj
 0002:00002040       __newclmap                 000000018001d040     LIBCMT:ctype.obj
 0002:000021c0       __newcumap                 000000018001d1c0     LIBCMT:ctype.obj
 0002:00002340       ??_C@_1BK@MGMFAEKH@?$AAk?$AAe?$AAr?$AAn?$AAe?$AAl?$AA3?$AA2?$AA?4?$AAd?$AAl?$AAl?$AA?$AA@ 000000018001d340     LIBCMT:winapisupp.obj
 0002:00002360       ??_C@_08KNHFBNJ@FlsAlloc?$AA@ 000000018001d360     LIBCMT:winapisupp.obj
 0002:00002370       ??_C@_07PEJMOBNF@FlsFree?$AA@ 000000018001d370     LIBCMT:winapisupp.obj
 0002:00002378       ??_C@_0M@GDNOONDI@FlsGetValue?$AA@ 000000018001d378     LIBCMT:winapisupp.obj
 0002:00002388       ??_C@_0M@JCPCPOEF@FlsSetValue?$AA@ 000000018001d388     LIBCMT:winapisupp.obj
 0002:00002398       ??_C@_0BM@HCFOFFN@InitializeCriticalSectionEx?$AA@ 000000018001d398     LIBCMT:winapisupp.obj
 0002:000023b8       ??_C@_0P@DLHPPCNH@CreateEventExW?$AA@ 000000018001d3b8     LIBCMT:winapisupp.obj
 0002:000023c8       ??_C@_0BD@KIEEOEEH@CreateSemaphoreExW?$AA@ 000000018001d3c8     LIBCMT:winapisupp.obj
 0002:000023e0       ??_C@_0BI@BKLFFAPO@SetThreadStackGuarantee?$AA@ 000000018001d3e0     LIBCMT:winapisupp.obj
 0002:000023f8       ??_C@_0BG@OGFAJCKC@CreateThreadpoolTimer?$AA@ 000000018001d3f8     LIBCMT:winapisupp.obj
 0002:00002410       ??_C@_0BD@LPLEMMDI@SetThreadpoolTimer?$AA@ 000000018001d410     LIBCMT:winapisupp.obj
 0002:00002428       ??_C@_0CA@FMNJENH@WaitForThreadpoolTimerCallbacks?$AA@ 000000018001d428     LIBCMT:winapisupp.obj
 0002:00002448       ??_C@_0BF@DCFCCNOC@CloseThreadpoolTimer?$AA@ 000000018001d448     LIBCMT:winapisupp.obj
 0002:00002460       ??_C@_0BF@FLABGKKM@CreateThreadpoolWait?$AA@ 000000018001d460     LIBCMT:winapisupp.obj
 0002:00002478       ??_C@_0BC@MGCOHNA@SetThreadpoolWait?$AA@ 000000018001d478     LIBCMT:winapisupp.obj
 0002:00002490       ??_C@_0BE@OCIOMIMP@CloseThreadpoolWait?$AA@ 000000018001d490     LIBCMT:winapisupp.obj
 0002:000024a8       ??_C@_0BJ@LKGHFHBO@FlushProcessWriteBuffers?$AA@ 000000018001d4a8     LIBCMT:winapisupp.obj
 0002:000024c8       ??_C@_0BP@KALKKPMO@FreeLibraryWhenCallbackReturns?$AA@ 000000018001d4c8     LIBCMT:winapisupp.obj
 0002:000024e8       ??_C@_0BK@DFNBACLA@GetCurrentProcessorNumber?$AA@ 000000018001d4e8     LIBCMT:winapisupp.obj
 0002:00002508       ??_C@_0BP@KHGALBC@GetLogicalProcessorInformation?$AA@ 000000018001d508     LIBCMT:winapisupp.obj
 0002:00002528       ??_C@_0BE@FKKLLFLM@CreateSymbolicLinkW?$AA@ 000000018001d528     LIBCMT:winapisupp.obj
 0002:00002540       ??_C@_0BJ@OHNKDLIJ@SetDefaultDllDirectories?$AA@ 000000018001d540     LIBCMT:winapisupp.obj
 0002:00002560       ??_C@_0BE@LJANKFHF@EnumSystemLocalesEx?$AA@ 000000018001d560     LIBCMT:winapisupp.obj
 0002:00002578       ??_C@_0BA@IHGNDAEB@CompareStringEx?$AA@ 000000018001d578     LIBCMT:winapisupp.obj
 0002:00002588       ??_C@_0BA@EPCJIIPD@GetDateFormatEx?$AA@ 000000018001d588     LIBCMT:winapisupp.obj
 0002:00002598       ??_C@_0BA@ONOKGCMP@GetLocaleInfoEx?$AA@ 000000018001d598     LIBCMT:winapisupp.obj
 0002:000025a8       ??_C@_0BA@CIJJKCJJ@GetTimeFormatEx?$AA@ 000000018001d5a8     LIBCMT:winapisupp.obj
 0002:000025b8       ??_C@_0BJ@PBCCBIPI@GetUserDefaultLocaleName?$AA@ 000000018001d5b8     LIBCMT:winapisupp.obj
 0002:000025d8       ??_C@_0BC@CELBKLLA@IsValidLocaleName?$AA@ 000000018001d5d8     LIBCMT:winapisupp.obj
 0002:000025f0       ??_C@_0O@KKBNKAPF@LCMapStringEx?$AA@ 000000018001d5f0     LIBCMT:winapisupp.obj
 0002:00002600       ??_C@_0BE@JOGNEJCI@GetCurrentPackageId?$AA@ 000000018001d600     LIBCMT:winapisupp.obj
 0002:00002618       ??_C@_0P@CDHHOHKP@GetTickCount64?$AA@ 000000018001d618     LIBCMT:winapisupp.obj
 0002:00002628       ??_C@_0BO@KPCLFDJJ@GetFileInformationByHandleExW?$AA@ 000000018001d628     LIBCMT:winapisupp.obj
 0002:00002648       ??_C@_0BM@MHIDLABK@SetFileInformationByHandleW?$AA@ 000000018001d648     LIBCMT:winapisupp.obj
 0002:00002670       LcidToLocaleNameTable      000000018001d670     LIBCMT:winapinls.obj
 0002:000034b0       LocaleNameToIndexTable     000000018001e4b0     LIBCMT:winapinls.obj
 0002:000042f0       ??_C@_15EMKDOKLE@?$AAa?$AAr?$AA?$AA@ 000000018001f2f0     LIBCMT:winapinls.obj
 0002:000042f8       ??_C@_15KNPADPLH@?$AAb?$AAg?$AA?$AA@ 000000018001f2f8     LIBCMT:winapinls.obj
 0002:00004300       ??_C@_15EDMHLDMO@?$AAc?$AAa?$AA?$AA@ 000000018001f300     LIBCMT:winapinls.obj
 0002:00004308       ??_C@_1O@BPEAJADD@?$AAz?$AAh?$AA?9?$AAC?$AAH?$AAS?$AA?$AA@ 000000018001f308     LIBCMT:winapinls.obj
 0002:00004318       ??_C@_15LJNHCMNK@?$AAc?$AAs?$AA?$AA@ 000000018001f318     LIBCMT:winapinls.obj
 0002:00004320       ??_C@_15FOMCIDHG@?$AAd?$AAa?$AA?$AA@ 000000018001f320     LIBCMT:winapinls.obj
 0002:00004328       ??_C@_15NBKABECB@?$AAd?$AAe?$AA?$AA@ 000000018001f328     LIBCMT:winapinls.obj
 0002:00004330       ??_C@_15GHPEIIAO@?$AAe?$AAl?$AA?$AA@ 000000018001f330     LIBCMT:winapinls.obj
 0002:00004338       ??_C@_15MNPNEAIF@?$AAe?$AAn?$AA?$AA@ 000000018001f338     LIBCMT:winapinls.obj
 0002:00004340       ??_C@_15GPIOMPMH@?$AAe?$AAs?$AA?$AA@ 000000018001f340     LIBCMT:winapinls.obj
 0002:00004348       ??_C@_15NGLOAKJC@?$AAf?$AAi?$AA?$AA@ 000000018001f348     LIBCMT:winapinls.obj
 0002:00004350       ??_C@_15FBKGNKAM@?$AAf?$AAr?$AA?$AA@ 000000018001f350     LIBCMT:winapinls.obj
 0002:00004358       ??_C@_15KGGCNEFK@?$AAh?$AAe?$AA?$AA@ 000000018001f358     LIBCMT:winapinls.obj
 0002:00004360       ??_C@_15PGHLIDMF@?$AAh?$AAu?$AA?$AA@ 000000018001f360     LIBCMT:winapinls.obj
 0002:00004368       ??_C@_15BIEMAPLM@?$AAi?$AAs?$AA?$AA@ 000000018001f368     LIBCMT:winapinls.obj
 0002:00004370       ??_C@_15IFJLDHAF@?$AAi?$AAt?$AA?$AA@ 000000018001f370     LIBCMT:winapinls.obj
 0002:00004378       ??_C@_15GEMIOCAG@?$AAj?$AAa?$AA?$AA@ 000000018001f378     LIBCMT:winapinls.obj
 0002:00004380       ??_C@_15EPELEGJA@?$AAk?$AAo?$AA?$AA@ 000000018001f380     LIBCMT:winapinls.obj
 0002:00004388       ??_C@_15NDDHIMN@?$AAn?$AAl?$AA?$AA@ 000000018001f388     LIBCMT:winapinls.obj
 0002:00004390       ??_C@_15BPIGNHCD@?$AAn?$AAo?$AA?$AA@ 000000018001f390     LIBCMT:winapinls.obj
 0002:00004398       ??_C@_15DEOPBLCG@?$AAp?$AAl?$AA?$AA@ 000000018001f398     LIBCMT:winapinls.obj
 0002:000043a0       ??_C@_15KBECGEFG@?$AAp?$AAt?$AA?$AA@ 000000018001f3a0     LIBCMT:winapinls.obj
 0002:000043a8       ??_C@_15GLJCBFMD@?$AAr?$AAo?$AA?$AA@ 000000018001f3a8     LIBCMT:winapinls.obj
 0002:000043b0       ??_C@_15FEDGKCDI@?$AAr?$AAu?$AA?$AA@ 000000018001f3b0     LIBCMT:winapinls.obj
 0002:000043b8       ??_C@_15GLKMLLHM@?$AAh?$AAr?$AA?$AA@ 000000018001f3b8     LIBCMT:winapinls.obj
 0002:000043c0       ??_C@_15CPKMFBDB@?$AAs?$AAk?$AA?$AA@ 000000018001f3c0     LIBCMT:winapinls.obj
 0002:000043c8       ??_C@_15BAAIOGMK@?$AAs?$AAq?$AA?$AA@ 000000018001f3c8     LIBCMT:winapinls.obj
 0002:000043d0       ??_C@_15INNPNOHD@?$AAs?$AAv?$AA?$AA@ 000000018001f3d0     LIBCMT:winapinls.obj
 0002:000043d8       ??_C@_15CABMMOGH@?$AAt?$AAh?$AA?$AA@ 000000018001f3d8     LIBCMT:winapinls.obj
 0002:000043e0       ??_C@_15BPLIHJJM@?$AAt?$AAr?$AA?$AA@ 000000018001f3e0     LIBCMT:winapinls.obj
 0002:000043e8       ??_C@_15NEOEKKDJ@?$AAu?$AAr?$AA?$AA@ 000000018001f3e8     LIBCMT:winapinls.obj
 0002:000043f0       ??_C@_15NFICGAJK@?$AAi?$AAd?$AA?$AA@ 000000018001f3f0     LIBCMT:winapinls.obj
 0002:000043f8       ??_C@_15PJPFLCCM@?$AAu?$AAk?$AA?$AA@ 000000018001f3f8     LIBCMT:winapinls.obj
 0002:00004400       ??_C@_15HPJPHDM@?$AAb?$AAe?$AA?$AA@ 000000018001f400     LIBCMT:winapinls.obj
 0002:00004408       ??_C@_15LCHLGJII@?$AAs?$AAl?$AA?$AA@ 000000018001f408     LIBCMT:winapinls.obj
 0002:00004410       ??_C@_15PCFJPHHO@?$AAe?$AAt?$AA?$AA@ 000000018001f410     LIBCMT:winapinls.obj
 0002:00004418       ??_C@_15HPFPGODN@?$AAl?$AAv?$AA?$AA@ 000000018001f418     LIBCMT:winapinls.obj
 0002:00004420       ??_C@_15NFFGKGLG@?$AAl?$AAt?$AA?$AA@ 000000018001f420     LIBCMT:winapinls.obj
 0002:00004428       ??_C@_15BDAKCCHN@?$AAf?$AAa?$AA?$AA@ 000000018001f428     LIBCMT:winapinls.obj
 0002:00004430       ??_C@_15NFGIAIAJ@?$AAv?$AAi?$AA?$AA@ 000000018001f430     LIBCMT:winapinls.obj
 0002:00004438       ??_C@_15LMKNDMHN@?$AAh?$AAy?$AA?$AA@ 000000018001f438     LIBCMT:winapinls.obj
 0002:00004440       ??_C@_15IJBHMCFL@?$AAa?$AAz?$AA?$AA@ 000000018001f440     LIBCMT:winapinls.obj
 0002:00004448       ??_C@_15EKOFJABL@?$AAe?$AAu?$AA?$AA@ 000000018001f448     LIBCMT:winapinls.obj
 0002:00004450       ??_C@_15BGHADCNK@?$AAm?$AAk?$AA?$AA@ 000000018001f450     LIBCMT:winapinls.obj
 0002:00004458       ??_C@_15JDNICKHM@?$AAa?$AAf?$AA?$AA@ 000000018001f458     LIBCMT:winapinls.obj
 0002:00004460       ??_C@_15KPJEDBKD@?$AAk?$AAa?$AA?$AA@ 000000018001f460     LIBCMT:winapinls.obj
 0002:00004468       ??_C@_15PDNFFFEO@?$AAf?$AAo?$AA?$AA@ 000000018001f468     LIBCMT:winapinls.obj
 0002:00004470       ??_C@_15OMLEGLOC@?$AAh?$AAi?$AA?$AA@ 000000018001f470     LIBCMT:winapinls.obj
 0002:00004478       ??_C@_15IDNNENKK@?$AAm?$AAs?$AA?$AA@ 000000018001f478     LIBCMT:winapinls.obj
 0002:00004480       ??_C@_15MACJNBMH@?$AAk?$AAk?$AA?$AA@ 000000018001f480     LIBCMT:winapinls.obj
 0002:00004488       ??_C@_15DKDJEOND@?$AAk?$AAy?$AA?$AA@ 000000018001f488     LIBCMT:winapinls.obj
 0002:00004490       ??_C@_15DFGDLJBG@?$AAs?$AAw?$AA?$AA@ 000000018001f490     LIBCMT:winapinls.obj
 0002:00004498       ??_C@_15BBFAICNG@?$AAu?$AAz?$AA?$AA@ 000000018001f498     LIBCMT:winapinls.obj
 0002:000044a0       ??_C@_15DKNDCGEA@?$AAt?$AAt?$AA?$AA@ 000000018001f4a0     LIBCMT:winapinls.obj
 0002:000044a8       ??_C@_15MGIFMDPL@?$AAp?$AAa?$AA?$AA@ 000000018001f4a8     LIBCMT:winapinls.obj
 0002:000044b0       ??_C@_15HCNDBBA@?$AAg?$AAu?$AA?$AA@ 000000018001f4b0     LIBCMT:winapinls.obj
 0002:000044b8       ??_C@_15FNBEIBON@?$AAt?$AAa?$AA?$AA@ 000000018001f4b8     LIBCMT:winapinls.obj
 0002:000044c0       ??_C@_15NCHGBGLK@?$AAt?$AAe?$AA?$AA@ 000000018001f4c0     LIBCMT:winapinls.obj
 0002:000044c8       ??_C@_15PHPHCBPF@?$AAk?$AAn?$AA?$AA@ 000000018001f4c8     LIBCMT:winapinls.obj
 0002:000044d0       ??_C@_15DLGBCKMP@?$AAm?$AAr?$AA?$AA@ 000000018001f4d0     LIBCMT:winapinls.obj
 0002:000044d8       ??_C@_15EABBLBFF@?$AAs?$AAa?$AA?$AA@ 000000018001f4d8     LIBCMT:winapinls.obj
 0002:000044e0       ??_C@_15CBKOMCOI@?$AAm?$AAn?$AA?$AA@ 000000018001f4e0     LIBCMT:winapinls.obj
 0002:000044e8       ??_C@_15CKDMCJAF@?$AAg?$AAl?$AA?$AA@ 000000018001f4e8     LIBCMT:winapinls.obj
 0002:000044f0       ??_C@_17CNJFBPG@?$AAk?$AAo?$AAk?$AA?$AA@ 000000018001f4f0     LIBCMT:winapinls.obj
 0002:000044f8       ??_C@_17FFBJICPL@?$AAs?$AAy?$AAr?$AA?$AA@ 000000018001f4f8     LIBCMT:winapinls.obj
 0002:00004500       ??_C@_17KPNDCPAF@?$AAd?$AAi?$AAv?$AA?$AA@ 000000018001f500     LIBCMT:winapinls.obj
 0002:00004508       ??_C@_1M@OKAHONE@?$AAa?$AAr?$AA?9?$AAS?$AAA?$AA?$AA@ 000000018001f508     LIBCMT:winapinls.obj
 0002:00004518       ??_C@_1M@FFFIGIGK@?$AAb?$AAg?$AA?9?$AAB?$AAG?$AA?$AA@ 000000018001f518     LIBCMT:winapinls.obj
 0002:00004528       ??_C@_1M@BJNKEDC@?$AAc?$AAa?$AA?9?$AAE?$AAS?$AA?$AA@ 000000018001f528     LIBCMT:winapinls.obj
 0002:00004538       ??_C@_1M@CLNBBOPM@?$AAz?$AAh?$AA?9?$AAT?$AAW?$AA?$AA@ 000000018001f538     LIBCMT:winapinls.obj
 0002:00004548       ??_C@_1M@IJJHFJHA@?$AAc?$AAs?$AA?9?$AAC?$AAZ?$AA?$AA@ 000000018001f548     LIBCMT:winapinls.obj
 0002:00004558       ??_C@_1M@CLPEOBGI@?$AAd?$AAa?$AA?9?$AAD?$AAK?$AA?$AA@ 000000018001f558     LIBCMT:winapinls.obj
 0002:00004568       ??_C@_1M@MCMADGCB@?$AAd?$AAe?$AA?9?$AAD?$AAE?$AA?$AA@ 000000018001f568     LIBCMT:winapinls.obj
 0002:00004578       ??_C@_1M@OOCKEMAM@?$AAe?$AAl?$AA?9?$AAG?$AAR?$AA?$AA@ 000000018001f578     LIBCMT:winapinls.obj
 0002:00004588       ??_C@_1M@BMHNFIME@?$AAe?$AAn?$AA?9?$AAU?$AAS?$AA?$AA@ 000000018001f588     LIBCMT:winapinls.obj
 0002:00004598       ??_C@_1M@DDNJFGID@?$AAf?$AAi?$AA?9?$AAF?$AAI?$AA?$AA@ 000000018001f598     LIBCMT:winapinls.obj
 0002:000045a8       ??_C@_1M@GLIPPMAC@?$AAf?$AAr?$AA?9?$AAF?$AAR?$AA?$AA@ 000000018001f5a8     LIBCMT:winapinls.obj
 0002:000045b8       ??_C@_1M@GFMCHPE@?$AAh?$AAe?$AA?9?$AAI?$AAL?$AA?$AA@ 000000018001f5b8     LIBCMT:winapinls.obj
 0002:000045c8       ??_C@_1M@MHLPGNKM@?$AAh?$AAu?$AA?9?$AAH?$AAU?$AA?$AA@ 000000018001f5c8     LIBCMT:winapinls.obj
 0002:000045d8       ??_C@_1M@LPDDNNPN@?$AAi?$AAs?$AA?9?$AAI?$AAS?$AA?$AA@ 000000018001f5d8     LIBCMT:winapinls.obj
 0002:000045e8       ??_C@_1M@MADIPODN@?$AAi?$AAt?$AA?9?$AAI?$AAT?$AA?$AA@ 000000018001f5e8     LIBCMT:winapinls.obj
 0002:000045f8       ??_C@_1M@HPNHIDJI@?$AAj?$AAa?$AA?9?$AAJ?$AAP?$AA?$AA@ 000000018001f5f8     LIBCMT:winapinls.obj
 0002:00004608       ??_C@_1M@JLOOOEGK@?$AAk?$AAo?$AA?9?$AAK?$AAR?$AA?$AA@ 000000018001f608     LIBCMT:winapinls.obj
 0002:00004618       ??_C@_1M@IHBJJGG@?$AAn?$AAl?$AA?9?$AAN?$AAL?$AA?$AA@ 000000018001f618     LIBCMT:winapinls.obj
 0002:00004628       ??_C@_1M@EANAGDL@?$AAn?$AAb?$AA?9?$AAN?$AAO?$AA?$AA@ 000000018001f628     LIBCMT:winapinls.obj
 0002:00004638       ??_C@_1M@NEIEMEGP@?$AAp?$AAl?$AA?9?$AAP?$AAL?$AA?$AA@ 000000018001f638     LIBCMT:winapinls.obj
 0002:00004648       ??_C@_1M@BOCFIGEP@?$AAp?$AAt?$AA?9?$AAB?$AAR?$AA?$AA@ 000000018001f648     LIBCMT:winapinls.obj
 0002:00004658       ??_C@_1M@IMPFOPBG@?$AAr?$AAo?$AA?9?$AAR?$AAO?$AA?$AA@ 000000018001f658     LIBCMT:winapinls.obj
 0002:00004668       ??_C@_1M@IDNNEJMM@?$AAr?$AAu?$AA?9?$AAR?$AAU?$AA?$AA@ 000000018001f668     LIBCMT:winapinls.obj
 0002:00004678       ??_C@_1M@LILEEOGM@?$AAh?$AAr?$AA?9?$AAH?$AAR?$AA?$AA@ 000000018001f678     LIBCMT:winapinls.obj
 0002:00004688       ??_C@_1M@FKIFEHPB@?$AAs?$AAk?$AA?9?$AAS?$AAK?$AA?$AA@ 000000018001f688     LIBCMT:winapinls.obj
 0002:00004698       ??_C@_1M@LJMAMNPJ@?$AAs?$AAq?$AA?9?$AAA?$AAL?$AA?$AA@ 000000018001f698     LIBCMT:winapinls.obj
 0002:000046a8       ??_C@_1M@GIAKDKJK@?$AAs?$AAv?$AA?9?$AAS?$AAE?$AA?$AA@ 000000018001f6a8     LIBCMT:winapinls.obj
 0002:000046b8       ??_C@_1M@MKJKIKCL@?$AAt?$AAh?$AA?9?$AAT?$AAH?$AA?$AA@ 000000018001f6b8     LIBCMT:winapinls.obj
 0002:000046c8       ??_C@_1M@MFLCCMPB@?$AAt?$AAr?$AA?9?$AAT?$AAR?$AA?$AA@ 000000018001f6c8     LIBCMT:winapinls.obj
 0002:000046d8       ??_C@_1M@OIJHDKJN@?$AAu?$AAr?$AA?9?$AAP?$AAK?$AA?$AA@ 000000018001f6d8     LIBCMT:winapinls.obj
 0002:000046e8       ??_C@_1M@LHIPCIEK@?$AAi?$AAd?$AA?9?$AAI?$AAD?$AA?$AA@ 000000018001f6e8     LIBCMT:winapinls.obj
 0002:000046f8       ??_C@_1M@MFMOBGI@?$AAu?$AAk?$AA?9?$AAU?$AAA?$AA?$AA@ 000000018001f6f8     LIBCMT:winapinls.obj
 0002:00004708       ??_C@_1M@OBGLJIPL@?$AAb?$AAe?$AA?9?$AAB?$AAY?$AA?$AA@ 000000018001f708     LIBCMT:winapinls.obj
 0002:00004718       ??_C@_1M@BCFAJEAD@?$AAs?$AAl?$AA?9?$AAS?$AAI?$AA?$AA@ 000000018001f718     LIBCMT:winapinls.obj
 0002:00004728       ??_C@_1M@FKFFEDDN@?$AAe?$AAt?$AA?9?$AAE?$AAE?$AA?$AA@ 000000018001f728     LIBCMT:winapinls.obj
 0002:00004738       ??_C@_1M@KGKKAACI@?$AAl?$AAv?$AA?9?$AAL?$AAV?$AA?$AA@ 000000018001f738     LIBCMT:winapinls.obj
 0002:00004748       ??_C@_1M@IFGBIJO@?$AAl?$AAt?$AA?9?$AAL?$AAT?$AA?$AA@ 000000018001f748     LIBCMT:winapinls.obj
 0002:00004758       ??_C@_1M@FGEAHEDM@?$AAf?$AAa?$AA?9?$AAI?$AAR?$AA?$AA@ 000000018001f758     LIBCMT:winapinls.obj
 0002:00004768       ??_C@_1M@KBMAIBFN@?$AAv?$AAi?$AA?9?$AAV?$AAN?$AA?$AA@ 000000018001f768     LIBCMT:winapinls.obj
 0002:00004778       ??_C@_1M@GPCBKDJK@?$AAh?$AAy?$AA?9?$AAA?$AAM?$AA?$AA@ 000000018001f778     LIBCMT:winapinls.obj
 0002:00004788       ??_C@_1BG@BECMDDJB@?$AAa?$AAz?$AA?9?$AAA?$AAZ?$AA?9?$AAL?$AAa?$AAt?$AAn?$AA?$AA@ 000000018001f788     LIBCMT:winapinls.obj
 0002:000047a0       ??_C@_1M@MAOFCAEA@?$AAe?$AAu?$AA?9?$AAE?$AAS?$AA?$AA@ 000000018001f7a0     LIBCMT:winapinls.obj
 0002:000047b0       ??_C@_1M@IGHABKPI@?$AAm?$AAk?$AA?9?$AAM?$AAK?$AA?$AA@ 000000018001f7b0     LIBCMT:winapinls.obj
 0002:000047c0       ??_C@_1M@IAIGNEJG@?$AAt?$AAn?$AA?9?$AAZ?$AAA?$AA?$AA@ 000000018001f7c0     LIBCMT:winapinls.obj
 0002:000047d0       ??_C@_1M@IIJCOJFA@?$AAx?$AAh?$AA?9?$AAZ?$AAA?$AA?$AA@ 000000018001f7d0     LIBCMT:winapinls.obj
 0002:000047e0       ??_C@_1M@LGPJHNJH@?$AAz?$AAu?$AA?9?$AAZ?$AAA?$AA?$AA@ 000000018001f7e0     LIBCMT:winapinls.obj
 0002:000047f0       ??_C@_1M@HOKAOIO@?$AAa?$AAf?$AA?9?$AAZ?$AAA?$AA?$AA@ 000000018001f7f0     LIBCMT:winapinls.obj
 0002:00004800       ??_C@_1M@DPCLHLIE@?$AAk?$AAa?$AA?9?$AAG?$AAE?$AA?$AA@ 000000018001f800     LIBCMT:winapinls.obj
 0002:00004810       ??_C@_1M@BLKMHJBI@?$AAf?$AAo?$AA?9?$AAF?$AAO?$AA?$AA@ 000000018001f810     LIBCMT:winapinls.obj
 0002:00004820       ??_C@_1M@LGGJAPPB@?$AAh?$AAi?$AA?9?$AAI?$AAN?$AA?$AA@ 000000018001f820     LIBCMT:winapinls.obj
 0002:00004830       ??_C@_1M@FIKPIHFE@?$AAm?$AAt?$AA?9?$AAM?$AAT?$AA?$AA@ 000000018001f830     LIBCMT:winapinls.obj
 0002:00004840       ??_C@_1M@HEGGPBFA@?$AAs?$AAe?$AA?9?$AAN?$AAO?$AA?$AA@ 000000018001f840     LIBCMT:winapinls.obj
 0002:00004850       ??_C@_1M@EIBJEEPA@?$AAm?$AAs?$AA?9?$AAM?$AAY?$AA?$AA@ 000000018001f850     LIBCMT:winapinls.obj
 0002:00004860       ??_C@_1M@FHLBGMPP@?$AAk?$AAk?$AA?9?$AAK?$AAZ?$AA?$AA@ 000000018001f860     LIBCMT:winapinls.obj
 0002:00004870       ??_C@_1M@NGJJLCGI@?$AAk?$AAy?$AA?9?$AAK?$AAG?$AA?$AA@ 000000018001f870     LIBCMT:winapinls.obj
 0002:00004880       ??_C@_1M@GIENNBFC@?$AAs?$AAw?$AA?9?$AAK?$AAE?$AA?$AA@ 000000018001f880     LIBCMT:winapinls.obj
 0002:00004890       ??_C@_1BG@NDGMJIMJ@?$AAu?$AAz?$AA?9?$AAU?$AAZ?$AA?9?$AAL?$AAa?$AAt?$AAn?$AA?$AA@ 000000018001f890     LIBCMT:winapinls.obj
 0002:000048a8       ??_C@_1M@IDCCIHBC@?$AAt?$AAt?$AA?9?$AAR?$AAU?$AA?$AA@ 000000018001f8a8     LIBCMT:winapinls.obj
 0002:000048b8       ??_C@_1M@LOICPMOJ@?$AAb?$AAn?$AA?9?$AAI?$AAN?$AA?$AA@ 000000018001f8b8     LIBCMT:winapinls.obj
 0002:000048c8       ??_C@_1M@KPKKNEAH@?$AAp?$AAa?$AA?9?$AAI?$AAN?$AA?$AA@ 000000018001f8c8     LIBCMT:winapinls.obj
 0002:000048d8       ??_C@_1M@PJGPPBOG@?$AAg?$AAu?$AA?9?$AAI?$AAN?$AA?$AA@ 000000018001f8d8     LIBCMT:winapinls.obj
 0002:000048e8       ??_C@_1M@KMKMOPHI@?$AAt?$AAa?$AA?9?$AAI?$AAN?$AA?$AA@ 000000018001f8e8     LIBCMT:winapinls.obj
 0002:000048f8       ??_C@_1M@KFEHEPAC@?$AAt?$AAe?$AA?9?$AAI?$AAN?$AA?$AA@ 000000018001f8f8     LIBCMT:winapinls.obj
 0002:00004908       ??_C@_1M@CDCLMGHI@?$AAk?$AAn?$AA?9?$AAI?$AAN?$AA?$AA@ 000000018001f908     LIBCMT:winapinls.obj
 0002:00004918       ??_C@_1M@MIODLDKF@?$AAm?$AAl?$AA?9?$AAI?$AAN?$AA?$AA@ 000000018001f918     LIBCMT:winapinls.obj
 0002:00004928       ??_C@_1M@PBIEACPO@?$AAm?$AAr?$AA?9?$AAI?$AAN?$AA?$AA@ 000000018001f928     LIBCMT:winapinls.obj
 0002:00004938       ??_C@_1M@NIDEAGPH@?$AAs?$AAa?$AA?9?$AAI?$AAN?$AA?$AA@ 000000018001f938     LIBCMT:winapinls.obj
 0002:00004948       ??_C@_1M@FHIHCBIO@?$AAm?$AAn?$AA?9?$AAM?$AAN?$AA?$AA@ 000000018001f948     LIBCMT:winapinls.obj
 0002:00004958       ??_C@_1M@JAIJPENP@?$AAc?$AAy?$AA?9?$AAG?$AAB?$AA?$AA@ 000000018001f958     LIBCMT:winapinls.obj
 0002:00004968       ??_C@_1M@PHGFBEPN@?$AAg?$AAl?$AA?9?$AAE?$AAS?$AA?$AA@ 000000018001f968     LIBCMT:winapinls.obj
 0002:00004978       ??_C@_1O@KPIPDNCP@?$AAk?$AAo?$AAk?$AA?9?$AAI?$AAN?$AA?$AA@ 000000018001f978     LIBCMT:winapinls.obj
 0002:00004988       ??_C@_1O@KNHJLDJA@?$AAs?$AAy?$AAr?$AA?9?$AAS?$AAY?$AA?$AA@ 000000018001f988     LIBCMT:winapinls.obj
 0002:00004998       ??_C@_1O@MKEKBLAH@?$AAd?$AAi?$AAv?$AA?9?$AAM?$AAV?$AA?$AA@ 000000018001f998     LIBCMT:winapinls.obj
 0002:000049a8       ??_C@_1O@OHDCKDDF@?$AAq?$AAu?$AAz?$AA?9?$AAB?$AAO?$AA?$AA@ 000000018001f9a8     LIBCMT:winapinls.obj
 0002:000049b8       ??_C@_1M@LEPJNLFD@?$AAn?$AAs?$AA?9?$AAZ?$AAA?$AA?$AA@ 000000018001f9b8     LIBCMT:winapinls.obj
 0002:000049c8       ??_C@_1M@OMLEIIJB@?$AAm?$AAi?$AA?9?$AAN?$AAZ?$AA?$AA@ 000000018001f9c8     LIBCMT:winapinls.obj
 0002:000049d8       ??_C@_1M@PMPEAILG@?$AAa?$AAr?$AA?9?$AAI?$AAQ?$AA?$AA@ 000000018001f9d8     LIBCMT:winapinls.obj
 0002:000049e8       ??_C@_1M@BIBDDEMK@?$AAz?$AAh?$AA?9?$AAC?$AAN?$AA?$AA@ 000000018001f9e8     LIBCMT:winapinls.obj
 0002:000049f8       ??_C@_1M@CNKPNOEE@?$AAd?$AAe?$AA?9?$AAC?$AAH?$AA?$AA@ 000000018001f9f8     LIBCMT:winapinls.obj
 0002:00004a08       ??_C@_1M@LKMGMLKO@?$AAe?$AAn?$AA?9?$AAG?$AAB?$AA?$AA@ 000000018001fa08     LIBCMT:winapinls.obj
 0002:00004a18       ??_C@_1M@PGKJFFGL@?$AAe?$AAs?$AA?9?$AAM?$AAX?$AA?$AA@ 000000018001fa18     LIBCMT:winapinls.obj
 0002:00004a28       ??_C@_1M@DNNANBDC@?$AAf?$AAr?$AA?9?$AAB?$AAE?$AA?$AA@ 000000018001fa28     LIBCMT:winapinls.obj
 0002:00004a38       ??_C@_1M@HLGMDFHM@?$AAi?$AAt?$AA?9?$AAC?$AAH?$AA?$AA@ 000000018001fa38     LIBCMT:winapinls.obj
 0002:00004a48       ??_C@_1M@CLLBGJH@?$AAn?$AAl?$AA?9?$AAB?$AAE?$AA?$AA@ 000000018001fa48     LIBCMT:winapinls.obj
 0002:00004a58       ??_C@_1M@BODBOGLF@?$AAn?$AAn?$AA?9?$AAN?$AAO?$AA?$AA@ 000000018001fa58     LIBCMT:winapinls.obj
 0002:00004a68       ??_C@_1M@HFFAHKAD@?$AAp?$AAt?$AA?9?$AAP?$AAT?$AA?$AA@ 000000018001fa68     LIBCMT:winapinls.obj
 0002:00004a78       ??_C@_1BG@LNOAKHIE@?$AAs?$AAr?$AA?9?$AAS?$AAP?$AA?9?$AAL?$AAa?$AAt?$AAn?$AA?$AA@ 000000018001fa78     LIBCMT:winapinls.obj
 0002:00004a90       ??_C@_1M@HBMHBGAK@?$AAs?$AAv?$AA?9?$AAF?$AAI?$AA?$AA@ 000000018001fa90     LIBCMT:winapinls.obj
 0002:00004aa0       ??_C@_1BG@DGCJGJBE@?$AAa?$AAz?$AA?9?$AAA?$AAZ?$AA?9?$AAC?$AAy?$AAr?$AAl?$AA?$AA@ 000000018001faa0     LIBCMT:winapinls.obj
 0002:00004ab8       ??_C@_1M@KEJDAAHB@?$AAs?$AAe?$AA?9?$AAS?$AAE?$AA?$AA@ 000000018001fab8     LIBCMT:winapinls.obj
 0002:00004ac8       ??_C@_1M@HEIBJJAD@?$AAm?$AAs?$AA?9?$AAB?$AAN?$AA?$AA@ 000000018001fac8     LIBCMT:winapinls.obj
 0002:00004ad8       ??_C@_1BG@PBGJMCEM@?$AAu?$AAz?$AA?9?$AAU?$AAZ?$AA?9?$AAC?$AAy?$AAr?$AAl?$AA?$AA@ 000000018001fad8     LIBCMT:winapinls.obj
 0002:00004af0       ??_C@_1O@LAOBCMDF@?$AAq?$AAu?$AAz?$AA?9?$AAE?$AAC?$AA?$AA@ 000000018001faf0     LIBCMT:winapinls.obj
 0002:00004b00       ??_C@_1M@POEEMAIO@?$AAa?$AAr?$AA?9?$AAE?$AAG?$AA?$AA@ 000000018001fb00     LIBCMT:winapinls.obj
 0002:00004b10       ??_C@_1M@EFAKDEDL@?$AAz?$AAh?$AA?9?$AAH?$AAK?$AA?$AA@ 000000018001fb10     LIBCMT:winapinls.obj
 0002:00004b20       ??_C@_1M@HKKIJHGI@?$AAd?$AAe?$AA?9?$AAA?$AAT?$AA?$AA@ 000000018001fb20     LIBCMT:winapinls.obj
 0002:00004b30       ??_C@_1M@KBFBEHJF@?$AAe?$AAn?$AA?9?$AAA?$AAU?$AA?$AA@ 000000018001fb30     LIBCMT:winapinls.obj
 0002:00004b40       ??_C@_1M@MNPLFAAH@?$AAe?$AAs?$AA?9?$AAE?$AAS?$AA?$AA@ 000000018001fb40     LIBCMT:winapinls.obj
 0002:00004b50       ??_C@_1M@HJOOJFMA@?$AAf?$AAr?$AA?9?$AAC?$AAA?$AA?$AA@ 000000018001fb50     LIBCMT:winapinls.obj
 0002:00004b60       ??_C@_1BG@JPOFPNAB@?$AAs?$AAr?$AA?9?$AAS?$AAP?$AA?9?$AAC?$AAy?$AAr?$AAl?$AA?$AA@ 000000018001fb60     LIBCMT:winapinls.obj
 0002:00004b78       ??_C@_1M@LNFOCMOB@?$AAs?$AAe?$AA?9?$AAF?$AAI?$AA?$AA@ 000000018001fb78     LIBCMT:winapinls.obj
 0002:00004b88       ??_C@_1O@MGJBOAMB@?$AAq?$AAu?$AAz?$AA?9?$AAP?$AAE?$AA?$AA@ 000000018001fb88     LIBCMT:winapinls.obj
 0002:00004b98       ??_C@_1M@GJINLBOK@?$AAa?$AAr?$AA?9?$AAL?$AAY?$AA?$AA@ 000000018001fb98     LIBCMT:winapinls.obj
 0002:00004ba8       ??_C@_1M@GGMNHJNL@?$AAz?$AAh?$AA?9?$AAS?$AAG?$AA?$AA@ 000000018001fba8     LIBCMT:winapinls.obj
 0002:00004bb8       ??_C@_1M@HOIKODND@?$AAd?$AAe?$AA?9?$AAL?$AAU?$AA?$AA@ 000000018001fbb8     LIBCMT:winapinls.obj
 0002:00004bc8       ??_C@_1M@DDOCCGFG@?$AAe?$AAn?$AA?9?$AAC?$AAA?$AA?$AA@ 000000018001fbc8     LIBCMT:winapinls.obj
 0002:00004bd8       ??_C@_1M@BNOEMJLF@?$AAe?$AAs?$AA?9?$AAG?$AAT?$AA?$AA@ 000000018001fbd8     LIBCMT:winapinls.obj
 0002:00004be8       ??_C@_1M@EOGNKEK@?$AAf?$AAr?$AA?9?$AAC?$AAH?$AA?$AA@ 000000018001fbe8     LIBCMT:winapinls.obj
 0002:00004bf8       ??_C@_1M@FLIDJFHL@?$AAh?$AAr?$AA?9?$AAB?$AAA?$AA?$AA@ 000000018001fbf8     LIBCMT:winapinls.obj
 0002:00004c08       ??_C@_1O@FMCELNAJ@?$AAs?$AAm?$AAj?$AA?9?$AAN?$AAO?$AA?$AA@ 000000018001fc08     LIBCMT:winapinls.obj
 0002:00004c18       ??_C@_1M@JHGLJMGJ@?$AAa?$AAr?$AA?9?$AAD?$AAZ?$AA?$AA@ 000000018001fc18     LIBCMT:winapinls.obj
 0002:00004c28       ??_C@_1M@JKKFDCNP@?$AAz?$AAh?$AA?9?$AAM?$AAO?$AA?$AA@ 000000018001fc28     LIBCMT:winapinls.obj
 0002:00004c38       ??_C@_1M@GEEFALPE@?$AAd?$AAe?$AA?9?$AAL?$AAI?$AA?$AA@ 000000018001fc38     LIBCMT:winapinls.obj
 0002:00004c48       ??_C@_1M@IGEOFBG@?$AAe?$AAn?$AA?9?$AAN?$AAZ?$AA?$AA@ 000000018001fc48     LIBCMT:winapinls.obj
 0002:00004c58       ??_C@_1M@KDBONEHP@?$AAe?$AAs?$AA?9?$AAC?$AAR?$AA?$AA@ 000000018001fc58     LIBCMT:winapinls.obj
 0002:00004c68       ??_C@_1M@FHMDOHNN@?$AAf?$AAr?$AA?9?$AAL?$AAU?$AA?$AA@ 000000018001fc68     LIBCMT:winapinls.obj
 0002:00004c78       ??_C@_1BG@NFKKMAFG@?$AAb?$AAs?$AA?9?$AAB?$AAA?$AA?9?$AAL?$AAa?$AAt?$AAn?$AA?$AA@ 000000018001fc78     LIBCMT:winapinls.obj
 0002:00004c90       ??_C@_1O@IMNBEMCI@?$AAs?$AAm?$AAj?$AA?9?$AAS?$AAE?$AA?$AA@ 000000018001fc90     LIBCMT:winapinls.obj
 0002:00004ca0       ??_C@_1M@DHHMBNDP@?$AAa?$AAr?$AA?9?$AAM?$AAA?$AA?$AA@ 000000018001fca0     LIBCMT:winapinls.obj
 0002:00004cb0       ??_C@_1M@BNBLJCGH@?$AAe?$AAn?$AA?9?$AAI?$AAE?$AA?$AA@ 000000018001fcb0     LIBCMT:winapinls.obj
 0002:00004cc0       ??_C@_1M@GEPAFMDL@?$AAe?$AAs?$AA?9?$AAP?$AAA?$AA?$AA@ 000000018001fcc0     LIBCMT:winapinls.obj
 0002:00004cd0       ??_C@_1M@OJONDMDL@?$AAf?$AAr?$AA?9?$AAM?$AAC?$AA?$AA@ 000000018001fcd0     LIBCMT:winapinls.obj
 0002:00004ce0       ??_C@_1BG@OBCNFJB@?$AAs?$AAr?$AA?9?$AAB?$AAA?$AA?9?$AAL?$AAa?$AAt?$AAn?$AA?$AA@ 000000018001fce0     LIBCMT:winapinls.obj
 0002:00004cf8       ??_C@_1O@KEMEEGPO@?$AAs?$AAm?$AAa?$AA?9?$AAN?$AAO?$AA?$AA@ 000000018001fcf8     LIBCMT:winapinls.obj
 0002:00004d08       ??_C@_1M@ELMGFODK@?$AAa?$AAr?$AA?9?$AAT?$AAN?$AA?$AA@ 000000018001fd08     LIBCMT:winapinls.obj
 0002:00004d18       ??_C@_1M@BHDLHFAF@?$AAe?$AAn?$AA?9?$AAZ?$AAA?$AA?$AA@ 000000018001fd18     LIBCMT:winapinls.obj
 0002:00004d28       ??_C@_1M@BMGIGLIF@?$AAe?$AAs?$AA?9?$AAD?$AAO?$AA?$AA@ 000000018001fd28     LIBCMT:winapinls.obj
 0002:00004d38       ??_C@_1BG@CMBHIPBE@?$AAs?$AAr?$AA?9?$AAB?$AAA?$AA?9?$AAC?$AAy?$AAr?$AAl?$AA?$AA@ 000000018001fd38     LIBCMT:winapinls.obj
 0002:00004d50       ??_C@_1O@HEDBLHNP@?$AAs?$AAm?$AAa?$AA?9?$AAS?$AAE?$AA?$AA@ 000000018001fd50     LIBCMT:winapinls.obj
 0002:00004d60       ??_C@_1M@DAGCADIM@?$AAa?$AAr?$AA?9?$AAO?$AAM?$AA?$AA@ 000000018001fd60     LIBCMT:winapinls.obj
 0002:00004d70       ??_C@_1M@FODLMICG@?$AAe?$AAn?$AA?9?$AAJ?$AAM?$AA?$AA@ 000000018001fd70     LIBCMT:winapinls.obj
 0002:00004d80       ??_C@_1M@DNMLCIHB@?$AAe?$AAs?$AA?9?$AAV?$AAE?$AA?$AA@ 000000018001fd80     LIBCMT:winapinls.obj
 0002:00004d90       ??_C@_1O@EOKHMKJK@?$AAs?$AAm?$AAs?$AA?9?$AAF?$AAI?$AA?$AA@ 000000018001fd90     LIBCMT:winapinls.obj
 0002:00004da0       ??_C@_1M@CAFJMKOF@?$AAa?$AAr?$AA?9?$AAY?$AAE?$AA?$AA@ 000000018001fda0     LIBCMT:winapinls.obj
 0002:00004db0       ??_C@_1M@CBFHIJLI@?$AAe?$AAn?$AA?9?$AAC?$AAB?$AA?$AA@ 000000018001fdb0     LIBCMT:winapinls.obj
 0002:00004dc0       ??_C@_1M@BGNFLDN@?$AAe?$AAs?$AA?9?$AAC?$AAO?$AA?$AA@ 000000018001fdc0     LIBCMT:winapinls.obj
 0002:00004dd0       ??_C@_1O@JMPHMAMC@?$AAs?$AAm?$AAn?$AA?9?$AAF?$AAI?$AA?$AA@ 000000018001fdd0     LIBCMT:winapinls.obj
 0002:00004de0       ??_C@_1M@JLANABKE@?$AAa?$AAr?$AA?9?$AAS?$AAY?$AA?$AA@ 000000018001fde0     LIBCMT:winapinls.obj
 0002:00004df0       ??_C@_1M@HPKGCFGN@?$AAe?$AAn?$AA?9?$AAB?$AAZ?$AA?$AA@ 000000018001fdf0     LIBCMT:winapinls.obj
 0002:00004e00       ??_C@_1M@OLJCMLGM@?$AAe?$AAs?$AA?9?$AAP?$AAE?$AA?$AA@ 000000018001fe00     LIBCMT:winapinls.obj
 0002:00004e10       ??_C@_1M@MKKGFKLE@?$AAa?$AAr?$AA?9?$AAJ?$AAO?$AA?$AA@ 000000018001fe10     LIBCMT:winapinls.obj
 0002:00004e20       ??_C@_1M@EKPGLDNI@?$AAe?$AAn?$AA?9?$AAT?$AAT?$AA?$AA@ 000000018001fe20     LIBCMT:winapinls.obj
 0002:00004e30       ??_C@_1M@OONGHFHE@?$AAe?$AAs?$AA?9?$AAA?$AAR?$AA?$AA@ 000000018001fe30     LIBCMT:winapinls.obj
 0002:00004e40       ??_C@_1M@OOJFGBHE@?$AAa?$AAr?$AA?9?$AAL?$AAB?$AA?$AA@ 000000018001fe40     LIBCMT:winapinls.obj
 0002:00004e50       ??_C@_1M@GCEJHNEG@?$AAe?$AAn?$AA?9?$AAZ?$AAW?$AA?$AA@ 000000018001fe50     LIBCMT:winapinls.obj
 0002:00004e60       ??_C@_1M@JNOCAHJI@?$AAe?$AAs?$AA?9?$AAE?$AAC?$AA?$AA@ 000000018001fe60     LIBCMT:winapinls.obj
 0002:00004e70       ??_C@_1M@JEFHPGGB@?$AAa?$AAr?$AA?9?$AAK?$AAW?$AA?$AA@ 000000018001fe70     LIBCMT:winapinls.obj
 0002:00004e80       ??_C@_1M@MLKIBJOJ@?$AAe?$AAn?$AA?9?$AAP?$AAH?$AA?$AA@ 000000018001fe80     LIBCMT:winapinls.obj
 0002:00004e90       ??_C@_1M@BDNIPEND@?$AAe?$AAs?$AA?9?$AAC?$AAL?$AA?$AA@ 000000018001fe90     LIBCMT:winapinls.obj
 0002:00004ea0       ??_C@_1M@MPNMEKBD@?$AAa?$AAr?$AA?9?$AAA?$AAE?$AA?$AA@ 000000018001fea0     LIBCMT:winapinls.obj
 0002:00004eb0       ??_C@_1M@KBJALCPI@?$AAe?$AAs?$AA?9?$AAU?$AAY?$AA?$AA@ 000000018001feb0     LIBCMT:winapinls.obj
 0002:00004ec0       ??_C@_1M@LLCCOAGA@?$AAa?$AAr?$AA?9?$AAB?$AAH?$AA?$AA@ 000000018001fec0     LIBCMT:winapinls.obj
 0002:00004ed0       ??_C@_1M@PBFNCDEL@?$AAe?$AAs?$AA?9?$AAP?$AAY?$AA?$AA@ 000000018001fed0     LIBCMT:winapinls.obj
 0002:00004ee0       ??_C@_1M@EDGINPNP@?$AAa?$AAr?$AA?9?$AAQ?$AAA?$AA?$AA@ 000000018001fee0     LIBCMT:winapinls.obj
 0002:00004ef0       ??_C@_1M@MKDBIIJI@?$AAe?$AAs?$AA?9?$AAB?$AAO?$AA?$AA@ 000000018001fef0     LIBCMT:winapinls.obj
 0002:00004f00       ??_C@_1M@CPKKEBLD@?$AAe?$AAs?$AA?9?$AAS?$AAV?$AA?$AA@ 000000018001ff00     LIBCMT:winapinls.obj
 0002:00004f10       ??_C@_1M@NDBGMMJL@?$AAe?$AAs?$AA?9?$AAH?$AAN?$AA?$AA@ 000000018001ff10     LIBCMT:winapinls.obj
 0002:00004f20       ??_C@_1M@JIJIBHDP@?$AAe?$AAs?$AA?9?$AAN?$AAI?$AA?$AA@ 000000018001ff20     LIBCMT:winapinls.obj
 0002:00004f30       ??_C@_1M@CGFMKEEK@?$AAe?$AAs?$AA?9?$AAP?$AAR?$AA?$AA@ 000000018001ff30     LIBCMT:winapinls.obj
 0002:00004f40       ??_C@_1O@ICJHKIIK@?$AAz?$AAh?$AA?9?$AAC?$AAH?$AAT?$AA?$AA@ 000000018001ff40     LIBCMT:winapinls.obj
 0002:00004f50       ??_C@_15CLNEJCE@?$AAs?$AAr?$AA?$AA@ 000000018001ff50     LIBCMT:winapinls.obj
 0002:00004f58       ??_C@_1M@KAHEKEIG@?$AAa?$AAf?$AA?9?$AAz?$AAa?$AA?$AA@ 000000018001ff58     LIBCMT:winapinls.obj
 0002:00004f68       ??_C@_1M@GIECOABL@?$AAa?$AAr?$AA?9?$AAa?$AAe?$AA?$AA@ 000000018001ff68     LIBCMT:winapinls.obj
 0002:00004f78       ??_C@_1M@BMLMEKGI@?$AAa?$AAr?$AA?9?$AAb?$AAh?$AA?$AA@ 000000018001ff78     LIBCMT:winapinls.obj
 0002:00004f88       ??_C@_1M@DAPFDGGB@?$AAa?$AAr?$AA?9?$AAd?$AAz?$AA?$AA@ 000000018001ff88     LIBCMT:winapinls.obj
 0002:00004f98       ??_C@_1M@FJNKGKIG@?$AAa?$AAr?$AA?9?$AAe?$AAg?$AA?$AA@ 000000018001ff98     LIBCMT:winapinls.obj
 0002:00004fa8       ??_C@_1M@FLGKKCLO@?$AAa?$AAr?$AA?9?$AAi?$AAq?$AA?$AA@ 000000018001ffa8     LIBCMT:winapinls.obj
 0002:00004fb8       ??_C@_1M@GNDIPALM@?$AAa?$AAr?$AA?9?$AAj?$AAo?$AA?$AA@ 000000018001ffb8     LIBCMT:winapinls.obj
 0002:00004fc8       ??_C@_1M@DDMJFMGJ@?$AAa?$AAr?$AA?9?$AAk?$AAw?$AA?$AA@ 000000018001ffc8     LIBCMT:winapinls.obj
 0002:00004fd8       ??_C@_1M@EJALMLHM@?$AAa?$AAr?$AA?9?$AAl?$AAb?$AA?$AA@ 000000018001ffd8     LIBCMT:winapinls.obj
 0002:00004fe8       ??_C@_1M@MOBDBLOC@?$AAa?$AAr?$AA?9?$AAl?$AAy?$AA?$AA@ 000000018001ffe8     LIBCMT:winapinls.obj
 0002:00004ff8       ??_C@_1M@JAOCLHDH@?$AAa?$AAr?$AA?9?$AAm?$AAa?$AA?$AA@ 000000018001fff8     LIBCMT:winapinls.obj
 0002:00005008       ??_C@_1M@JHPMKJIE@?$AAa?$AAr?$AA?9?$AAo?$AAm?$AA?$AA@ 0000000180020008     LIBCMT:winapinls.obj
 0002:00005018       ??_C@_1M@OEPGHFNH@?$AAa?$AAr?$AA?9?$AAq?$AAa?$AA?$AA@ 0000000180020018     LIBCMT:winapinls.obj
 0002:00005028       ??_C@_1M@KJDONENM@?$AAa?$AAr?$AA?9?$AAs?$AAa?$AA?$AA@ 0000000180020028     LIBCMT:winapinls.obj
 0002:00005038       ??_C@_1M@DMJDKLKM@?$AAa?$AAr?$AA?9?$AAs?$AAy?$AA?$AA@ 0000000180020038     LIBCMT:winapinls.obj
 0002:00005048       ??_C@_1M@OMFIPEDC@?$AAa?$AAr?$AA?9?$AAt?$AAn?$AA?$AA@ 0000000180020048     LIBCMT:winapinls.obj
 0002:00005058       ??_C@_1M@IHMHGAON@?$AAa?$AAr?$AA?9?$AAy?$AAe?$AA?$AA@ 0000000180020058     LIBCMT:winapinls.obj
 0002:00005068       ??_C@_1BG@KDCPGJGB@?$AAa?$AAz?$AA?9?$AAa?$AAz?$AA?9?$AAc?$AAy?$AAr?$AAl?$AA?$AA@ 0000000180020068     LIBCMT:winapinls.obj
 0002:00005080       ??_C@_1BG@IBCKDDOE@?$AAa?$AAz?$AA?9?$AAa?$AAz?$AA?9?$AAl?$AAa?$AAt?$AAn?$AA?$AA@ 0000000180020080     LIBCMT:winapinls.obj
 0002:00005098       ??_C@_1M@EGPFDCPD@?$AAb?$AAe?$AA?9?$AAb?$AAy?$AA?$AA@ 0000000180020098     LIBCMT:winapinls.obj
 0002:000050a8       ??_C@_1M@PCMGMCGC@?$AAb?$AAg?$AA?9?$AAb?$AAg?$AA?$AA@ 00000001800200a8     LIBCMT:winapinls.obj
 0002:000050b8       ??_C@_1M@BJBMFGOB@?$AAb?$AAn?$AA?9?$AAi?$AAn?$AA?$AA@ 00000001800200b8     LIBCMT:winapinls.obj
 0002:000050c8       ??_C@_1BG@EAKMMACD@?$AAb?$AAs?$AA?9?$AAb?$AAa?$AA?9?$AAl?$AAa?$AAt?$AAn?$AA?$AA@ 00000001800200c8     LIBCMT:winapinls.obj
 0002:000050e0       ??_C@_1M@KGADAODK@?$AAc?$AAa?$AA?9?$AAe?$AAs?$AA?$AA@ 00000001800200e0     LIBCMT:winapinls.obj
 0002:000050f0       ??_C@_1M@COAJPDHI@?$AAc?$AAs?$AA?9?$AAc?$AAz?$AA?$AA@ 00000001800200f0     LIBCMT:winapinls.obj
 0002:00005100       ??_C@_1M@DHBHFONH@?$AAc?$AAy?$AA?9?$AAg?$AAb?$AA?$AA@ 0000000180020100     LIBCMT:winapinls.obj
 0002:00005110       ??_C@_1M@IMGKELGA@?$AAd?$AAa?$AA?9?$AAd?$AAk?$AA?$AA@ 0000000180020110     LIBCMT:winapinls.obj
 0002:00005120       ??_C@_1M@NNDGDNGA@?$AAd?$AAe?$AA?9?$AAa?$AAt?$AA?$AA@ 0000000180020120     LIBCMT:winapinls.obj
 0002:00005130       ??_C@_1M@IKDBHEEM@?$AAd?$AAe?$AA?9?$AAc?$AAh?$AA?$AA@ 0000000180020130     LIBCMT:winapinls.obj
 0002:00005140       ??_C@_1M@GFFOJMCJ@?$AAd?$AAe?$AA?9?$AAd?$AAe?$AA?$AA@ 0000000180020140     LIBCMT:winapinls.obj
 0002:00005150       ??_C@_1M@MDNLKBPM@?$AAd?$AAe?$AA?9?$AAl?$AAi?$AA?$AA@ 0000000180020150     LIBCMT:winapinls.obj
 0002:00005160       ??_C@_1M@NJBEEJNL@?$AAd?$AAe?$AA?9?$AAl?$AAu?$AA?$AA@ 0000000180020160     LIBCMT:winapinls.obj
 0002:00005170       ??_C@_1O@GNNELBAP@?$AAd?$AAi?$AAv?$AA?9?$AAm?$AAv?$AA?$AA@ 0000000180020170     LIBCMT:winapinls.obj
 0002:00005180       ??_C@_1M@EJLEOGAE@?$AAe?$AAl?$AA?9?$AAg?$AAr?$AA?$AA@ 0000000180020180     LIBCMT:winapinls.obj
 0002:00005190       ??_C@_1M@GMPONJN@?$AAe?$AAn?$AA?9?$AAa?$AAu?$AA?$AA@ 0000000180020190     LIBCMT:winapinls.obj
 0002:000051a0       ??_C@_1M@NIDIIPGF@?$AAe?$AAn?$AA?9?$AAb?$AAz?$AA?$AA@ 00000001800201a0     LIBCMT:winapinls.obj
 0002:000051b0       ??_C@_1M@JEHMIMFO@?$AAe?$AAn?$AA?9?$AAc?$AAa?$AA?$AA@ 00000001800201b0     LIBCMT:winapinls.obj
 0002:000051c0       ??_C@_1M@IGMJCDLA@?$AAe?$AAn?$AA?9?$AAc?$AAb?$AA?$AA@ 00000001800201c0     LIBCMT:winapinls.obj
 0002:000051d0       ??_C@_1M@BNFIGBKG@?$AAe?$AAn?$AA?9?$AAg?$AAb?$AA?$AA@ 00000001800201d0     LIBCMT:winapinls.obj
 0002:000051e0       ??_C@_1M@LKIFDIGP@?$AAe?$AAn?$AA?9?$AAi?$AAe?$AA?$AA@ 00000001800201e0     LIBCMT:winapinls.obj
 0002:000051f0       ??_C@_1M@PJKFGCCO@?$AAe?$AAn?$AA?9?$AAj?$AAm?$AA?$AA@ 00000001800201f0     LIBCMT:winapinls.obj
 0002:00005200       ??_C@_1M@KPPKEPBO@?$AAe?$AAn?$AA?9?$AAn?$AAz?$AA?$AA@ 0000000180020200     LIBCMT:winapinls.obj
 0002:00005210       ??_C@_1M@GMDGLDOB@?$AAe?$AAn?$AA?9?$AAp?$AAh?$AA?$AA@ 0000000180020210     LIBCMT:winapinls.obj
 0002:00005220       ??_C@_1M@ONGIBJNA@?$AAe?$AAn?$AA?9?$AAt?$AAt?$AA?$AA@ 0000000180020220     LIBCMT:winapinls.obj
 0002:00005230       ??_C@_1M@LLODPCMM@?$AAe?$AAn?$AA?9?$AAu?$AAs?$AA?$AA@ 0000000180020230     LIBCMT:winapinls.obj
 0002:00005240       ??_C@_1M@LAKFNPAN@?$AAe?$AAn?$AA?9?$AAz?$AAa?$AA?$AA@ 0000000180020240     LIBCMT:winapinls.obj
 0002:00005250       ??_C@_1M@MFNHNHEO@?$AAe?$AAn?$AA?9?$AAz?$AAw?$AA?$AA@ 0000000180020250     LIBCMT:winapinls.obj
 0002:00005260       ??_C@_1M@EJEINPHM@?$AAe?$AAs?$AA?9?$AAa?$AAr?$AA?$AA@ 0000000180020260     LIBCMT:winapinls.obj
 0002:00005270       ??_C@_1M@GNKPCCJA@?$AAe?$AAs?$AA?9?$AAb?$AAo?$AA?$AA@ 0000000180020270     LIBCMT:winapinls.obj
 0002:00005280       ??_C@_1M@LEEGFONL@?$AAe?$AAs?$AA?9?$AAc?$AAl?$AA?$AA@ 0000000180020280     LIBCMT:winapinls.obj
 0002:00005290       ??_C@_1M@KGPDPBDF@?$AAe?$AAs?$AA?9?$AAc?$AAo?$AA?$AA@ 0000000180020290     LIBCMT:winapinls.obj
 0002:000052a0       ??_C@_1M@EIAHOHH@?$AAe?$AAs?$AA?9?$AAc?$AAr?$AA?$AA@ 00000001800202a0     LIBCMT:winapinls.obj
 0002:000052b0       ??_C@_1M@LLPGMBIN@?$AAe?$AAs?$AA?9?$AAd?$AAo?$AA?$AA@ 00000001800202b0     LIBCMT:winapinls.obj
 0002:000052c0       ??_C@_1M@DKHMKNJA@?$AAe?$AAs?$AA?9?$AAe?$AAc?$AA?$AA@ 00000001800202c0     LIBCMT:winapinls.obj
 0002:000052d0       ??_C@_1M@GKGFPKAP@?$AAe?$AAs?$AA?9?$AAe?$AAs?$AA?$AA@ 00000001800202d0     LIBCMT:winapinls.obj
 0002:000052e0       ??_C@_1M@LKHKGDLN@?$AAe?$AAs?$AA?9?$AAg?$AAt?$AA?$AA@ 00000001800202e0     LIBCMT:winapinls.obj
 0002:000052f0       ??_C@_1M@HEIIGGJD@?$AAe?$AAs?$AA?9?$AAh?$AAn?$AA?$AA@ 00000001800202f0     LIBCMT:winapinls.obj
 0002:00005300       ??_C@_1M@FBDHPPGD@?$AAe?$AAs?$AA?9?$AAm?$AAx?$AA?$AA@ 0000000180020300     LIBCMT:winapinls.obj
 0002:00005310       ??_C@_1M@DPAGLNDH@?$AAe?$AAs?$AA?9?$AAn?$AAi?$AA?$AA@ 0000000180020310     LIBCMT:winapinls.obj
 0002:00005320       ??_C@_1M@MDGOPGDD@?$AAe?$AAs?$AA?9?$AAp?$AAa?$AA?$AA@ 0000000180020320     LIBCMT:winapinls.obj
 0002:00005330       ??_C@_1M@EMAMGBGE@?$AAe?$AAs?$AA?9?$AAp?$AAe?$AA?$AA@ 0000000180020330     LIBCMT:winapinls.obj
 0002:00005340       ??_C@_1M@IBMCAOEC@?$AAe?$AAs?$AA?9?$AAp?$AAr?$AA?$AA@ 0000000180020340     LIBCMT:winapinls.obj
 0002:00005350       ??_C@_1M@FGMDIJED@?$AAe?$AAs?$AA?9?$AAp?$AAy?$AA?$AA@ 0000000180020350     LIBCMT:winapinls.obj
 0002:00005360       ??_C@_1M@IIDEOLLL@?$AAe?$AAs?$AA?9?$AAs?$AAv?$AA?$AA@ 0000000180020360     LIBCMT:winapinls.obj
 0002:00005370       ??_C@_1M@GAOBIPA@?$AAe?$AAs?$AA?9?$AAu?$AAy?$AA?$AA@ 0000000180020370     LIBCMT:winapinls.obj
 0002:00005380       ??_C@_1M@JKFFICHJ@?$AAe?$AAs?$AA?9?$AAv?$AAe?$AA?$AA@ 0000000180020380     LIBCMT:winapinls.obj
 0002:00005390       ??_C@_1M@PNMLOJDF@?$AAe?$AAt?$AA?9?$AAe?$AAe?$AA?$AA@ 0000000180020390     LIBCMT:winapinls.obj
 0002:000053a0       ??_C@_1M@GHHLIKEI@?$AAe?$AAu?$AA?9?$AAe?$AAs?$AA?$AA@ 00000001800203a0     LIBCMT:winapinls.obj
 0002:000053b0       ??_C@_1M@PBNONODE@?$AAf?$AAa?$AA?9?$AAi?$AAr?$AA?$AA@ 00000001800203b0     LIBCMT:winapinls.obj
 0002:000053c0       ??_C@_1M@JEEHPMIL@?$AAf?$AAi?$AA?9?$AAf?$AAi?$AA?$AA@ 00000001800203c0     LIBCMT:winapinls.obj
 0002:000053d0       ??_C@_1M@LMDCNDBA@?$AAf?$AAo?$AA?9?$AAf?$AAo?$AA?$AA@ 00000001800203d0     LIBCMT:winapinls.obj
 0002:000053e0       ??_C@_1M@JKEOHLDK@?$AAf?$AAr?$AA?9?$AAb?$AAe?$AA?$AA@ 00000001800203e0     LIBCMT:winapinls.obj
 0002:000053f0       ??_C@_1M@NOHADPMI@?$AAf?$AAr?$AA?9?$AAc?$AAa?$AA?$AA@ 00000001800203f0     LIBCMT:winapinls.obj
 0002:00005400       ??_C@_1M@KDHIHAEC@?$AAf?$AAr?$AA?9?$AAc?$AAh?$AA?$AA@ 0000000180020400     LIBCMT:winapinls.obj
 0002:00005410       ??_C@_1M@MMBBFGAK@?$AAf?$AAr?$AA?9?$AAf?$AAr?$AA?$AA@ 0000000180020410     LIBCMT:winapinls.obj
 0002:00005420       ??_C@_1M@PAFNENNF@?$AAf?$AAr?$AA?9?$AAl?$AAu?$AA?$AA@ 0000000180020420     LIBCMT:winapinls.obj
 0002:00005430       ??_C@_1M@EOHDJGDD@?$AAf?$AAr?$AA?9?$AAm?$AAc?$AA?$AA@ 0000000180020430     LIBCMT:winapinls.obj
 0002:00005440       ??_C@_1M@FAPLLOPF@?$AAg?$AAl?$AA?9?$AAe?$AAs?$AA?$AA@ 0000000180020440     LIBCMT:winapinls.obj
 0002:00005450       ??_C@_1M@FOPBFLOO@?$AAg?$AAu?$AA?9?$AAi?$AAn?$AA?$AA@ 0000000180020450     LIBCMT:winapinls.obj
 0002:00005460       ??_C@_1M@KBMCINPM@?$AAh?$AAe?$AA?9?$AAi?$AAl?$AA?$AA@ 0000000180020460     LIBCMT:winapinls.obj
 0002:00005470       ??_C@_1M@BBPHKFPJ@?$AAh?$AAi?$AA?9?$AAi?$AAn?$AA?$AA@ 0000000180020470     LIBCMT:winapinls.obj
 0002:00005480       ??_C@_1M@PMBNDPHD@?$AAh?$AAr?$AA?9?$AAb?$AAa?$AA?$AA@ 0000000180020480     LIBCMT:winapinls.obj
 0002:00005490       ??_C@_1M@BPCKOEGE@?$AAh?$AAr?$AA?9?$AAh?$AAr?$AA?$AA@ 0000000180020490     LIBCMT:winapinls.obj
 0002:000054a0       ??_C@_1M@GACBMHKE@?$AAh?$AAu?$AA?9?$AAh?$AAu?$AA?$AA@ 00000001800204a0     LIBCMT:winapinls.obj
 0002:000054b0       ??_C@_1M@MILPAJJC@?$AAh?$AAy?$AA?9?$AAa?$AAm?$AA?$AA@ 00000001800204b0     LIBCMT:winapinls.obj
 0002:000054c0       ??_C@_1M@BABBICEC@?$AAi?$AAd?$AA?9?$AAi?$AAd?$AA?$AA@ 00000001800204c0     LIBCMT:winapinls.obj
 0002:000054d0       ??_C@_1M@BIKNHHPF@?$AAi?$AAs?$AA?9?$AAi?$AAs?$AA?$AA@ 00000001800204d0     LIBCMT:winapinls.obj
 0002:000054e0       ??_C@_1M@NMPCJPHE@?$AAi?$AAt?$AA?9?$AAc?$AAh?$AA?$AA@ 00000001800204e0     LIBCMT:winapinls.obj
 0002:000054f0       ??_C@_1M@GHKGFEDF@?$AAi?$AAt?$AA?9?$AAi?$AAt?$AA?$AA@ 00000001800204f0     LIBCMT:winapinls.obj
 0002:00005500       ??_C@_1M@NIEJCJJA@?$AAj?$AAa?$AA?9?$AAj?$AAp?$AA?$AA@ 0000000180020500     LIBCMT:winapinls.obj
 0002:00005510       ??_C@_1M@JILFNBIM@?$AAk?$AAa?$AA?9?$AAg?$AAe?$AA?$AA@ 0000000180020510     LIBCMT:winapinls.obj
 0002:00005520       ??_C@_1M@PACPMGPH@?$AAk?$AAk?$AA?9?$AAk?$AAz?$AA?$AA@ 0000000180020520     LIBCMT:winapinls.obj
 0002:00005530       ??_C@_1M@IELFGMHA@?$AAk?$AAn?$AA?9?$AAi?$AAn?$AA?$AA@ 0000000180020530     LIBCMT:winapinls.obj
 0002:00005540       ??_C@_1O@IBBJHCH@?$AAk?$AAo?$AAk?$AA?9?$AAi?$AAn?$AA?$AA@ 0000000180020540     LIBCMT:winapinls.obj
 0002:00005550       ??_C@_1M@DMHAEOGC@?$AAk?$AAo?$AA?9?$AAk?$AAr?$AA?$AA@ 0000000180020550     LIBCMT:winapinls.obj
 0002:00005560       ??_C@_1M@HBAHBIGA@?$AAk?$AAy?$AA?9?$AAk?$AAg?$AA?$AA@ 0000000180020560     LIBCMT:winapinls.obj
 0002:00005570       ??_C@_1M@KPMILCJG@?$AAl?$AAt?$AA?9?$AAl?$AAt?$AA?$AA@ 0000000180020570     LIBCMT:winapinls.obj
 0002:00005580       ??_C@_1M@BDEKKCA@?$AAl?$AAv?$AA?9?$AAl?$AAv?$AA?$AA@ 0000000180020580     LIBCMT:winapinls.obj
 0002:00005590       ??_C@_1M@ELCKCCJJ@?$AAm?$AAi?$AA?9?$AAn?$AAz?$AA?$AA@ 0000000180020590     LIBCMT:winapinls.obj
 0002:000055a0       ??_C@_1M@CBOOLAPA@?$AAm?$AAk?$AA?9?$AAm?$AAk?$AA?$AA@ 00000001800205a0     LIBCMT:winapinls.obj
 0002:000055b0       ??_C@_1M@GPHNBJKN@?$AAm?$AAl?$AA?9?$AAi?$AAn?$AA?$AA@ 00000001800205b0     LIBCMT:winapinls.obj
 0002:000055c0       ??_C@_1M@PABJILIG@?$AAm?$AAn?$AA?9?$AAm?$AAn?$AA?$AA@ 00000001800205c0     LIBCMT:winapinls.obj
 0002:000055d0       ??_C@_1M@FGBKKIPG@?$AAm?$AAr?$AA?9?$AAi?$AAn?$AA?$AA@ 00000001800205d0     LIBCMT:winapinls.obj
 0002:000055e0       ??_C@_1M@NDBPDDAL@?$AAm?$AAs?$AA?9?$AAb?$AAn?$AA?$AA@ 00000001800205e0     LIBCMT:winapinls.obj
 0002:000055f0       ??_C@_1M@OPIHOOPI@?$AAm?$AAs?$AA?9?$AAm?$AAy?$AA?$AA@ 00000001800205f0     LIBCMT:winapinls.obj
 0002:00005600       ??_C@_1M@PPDBCNFM@?$AAm?$AAt?$AA?9?$AAm?$AAt?$AA?$AA@ 0000000180020600     LIBCMT:winapinls.obj
 0002:00005610       ??_C@_1M@KDJDKMDD@?$AAn?$AAb?$AA?9?$AAn?$AAo?$AA?$AA@ 0000000180020610     LIBCMT:winapinls.obj
 0002:00005620       ??_C@_1M@KFCFLMJP@?$AAn?$AAl?$AA?9?$AAb?$AAe?$AA?$AA@ 0000000180020620     LIBCMT:winapinls.obj
 0002:00005630       ??_C@_1M@KPOPDDGO@?$AAn?$AAl?$AA?9?$AAn?$AAl?$AA?$AA@ 0000000180020630     LIBCMT:winapinls.obj
 0002:00005640       ??_C@_1M@LJKPEMLN@?$AAn?$AAn?$AA?9?$AAn?$AAo?$AA?$AA@ 0000000180020640     LIBCMT:winapinls.obj
 0002:00005650       ??_C@_1M@BDGHHBFL@?$AAn?$AAs?$AA?9?$AAz?$AAa?$AA?$AA@ 0000000180020650     LIBCMT:winapinls.obj
 0002:00005660       ??_C@_1M@IDEHOAP@?$AAp?$AAa?$AA?9?$AAi?$AAn?$AA?$AA@ 0000000180020660     LIBCMT:winapinls.obj
 0002:00005670       ??_C@_1M@HDBKGOGH@?$AAp?$AAl?$AA?9?$AAp?$AAl?$AA?$AA@ 0000000180020670     LIBCMT:winapinls.obj
 0002:00005680       ??_C@_1M@LJLLCMEH@?$AAp?$AAt?$AA?9?$AAb?$AAr?$AA?$AA@ 0000000180020680     LIBCMT:winapinls.obj
 0002:00005690       ??_C@_1M@NCMONAAL@?$AAp?$AAt?$AA?9?$AAp?$AAt?$AA?$AA@ 0000000180020690     LIBCMT:winapinls.obj
 0002:000056a0       ??_C@_1O@EAKMAJDN@?$AAq?$AAu?$AAz?$AA?9?$AAb?$AAo?$AA?$AA@ 00000001800206a0     LIBCMT:winapinls.obj
 0002:000056b0       ??_C@_1O@BHHPIGDN@?$AAq?$AAu?$AAz?$AA?9?$AAe?$AAc?$AA?$AA@ 00000001800206b0     LIBCMT:winapinls.obj
 0002:000056c0       ??_C@_1O@GBAPEKMJ@?$AAq?$AAu?$AAz?$AA?9?$AAp?$AAe?$AA?$AA@ 00000001800206c0     LIBCMT:winapinls.obj
 0002:000056d0       ??_C@_1M@CLGLEFBO@?$AAr?$AAo?$AA?9?$AAr?$AAo?$AA?$AA@ 00000001800206d0     LIBCMT:winapinls.obj
 0002:000056e0       ??_C@_1M@CEEDODME@?$AAr?$AAu?$AA?9?$AAr?$AAu?$AA?$AA@ 00000001800206e0     LIBCMT:winapinls.obj
 0002:000056f0       ??_C@_1M@HPKKKMPP@?$AAs?$AAa?$AA?9?$AAi?$AAn?$AA?$AA@ 00000001800206f0     LIBCMT:winapinls.obj
 0002:00005700       ??_C@_1M@BKMAIGOJ@?$AAs?$AAe?$AA?9?$AAf?$AAi?$AA?$AA@ 0000000180020700     LIBCMT:winapinls.obj
 0002:00005710       ??_C@_1M@NDPIFLFI@?$AAs?$AAe?$AA?9?$AAn?$AAo?$AA?$AA@ 0000000180020710     LIBCMT:winapinls.obj
 0002:00005720       ??_C@_1M@DANKKHJ@?$AAs?$AAe?$AA?9?$AAs?$AAe?$AA?$AA@ 0000000180020720     LIBCMT:winapinls.obj
 0002:00005730       ??_C@_1M@PNBLONPJ@?$AAs?$AAk?$AA?9?$AAs?$AAk?$AA?$AA@ 0000000180020730     LIBCMT:winapinls.obj
 0002:00005740       ??_C@_1M@LFMODOAL@?$AAs?$AAl?$AA?9?$AAs?$AAi?$AA?$AA@ 0000000180020740     LIBCMT:winapinls.obj
 0002:00005750       ??_C@_1O@DFKOMPG@?$AAs?$AAm?$AAa?$AA?9?$AAn?$AAo?$AA?$AA@ 0000000180020750     LIBCMT:winapinls.obj
 0002:00005760       ??_C@_1O@NDKPBNNH@?$AAs?$AAm?$AAa?$AA?9?$AAs?$AAe?$AA?$AA@ 0000000180020760     LIBCMT:winapinls.obj
 0002:00005770       ??_C@_1O@PLLKBHAB@?$AAs?$AAm?$AAj?$AA?9?$AAn?$AAo?$AA?$AA@ 0000000180020770     LIBCMT:winapinls.obj
 0002:00005780       ??_C@_1O@CLEPOGCA@?$AAs?$AAm?$AAj?$AA?9?$AAs?$AAe?$AA?$AA@ 0000000180020780     LIBCMT:winapinls.obj
 0002:00005790       ??_C@_1O@DLGJGKMK@?$AAs?$AAm?$AAn?$AA?9?$AAf?$AAi?$AA?$AA@ 0000000180020790     LIBCMT:winapinls.obj
 0002:000057a0       ??_C@_1O@OJDJGAJC@?$AAs?$AAm?$AAs?$AA?9?$AAf?$AAi?$AA?$AA@ 00000001800207a0     LIBCMT:winapinls.obj
 0002:000057b0       ??_C@_1M@BOFOGHPB@?$AAs?$AAq?$AA?9?$AAa?$AAl?$AA?$AA@ 00000001800207b0     LIBCMT:winapinls.obj
 0002:000057c0       ??_C@_1BG@LJBBIPGB@?$AAs?$AAr?$AA?9?$AAb?$AAa?$AA?9?$AAc?$AAy?$AAr?$AAl?$AA?$AA@ 00000001800207c0     LIBCMT:winapinls.obj
 0002:000057d8       ??_C@_1BG@JLBENFOE@?$AAs?$AAr?$AA?9?$AAb?$AAa?$AA?9?$AAl?$AAa?$AAt?$AAn?$AA?$AA@ 00000001800207d8     LIBCMT:winapinls.obj
 0002:000057f0       ??_C@_1BG@KODPNHE@?$AAs?$AAr?$AA?9?$AAs?$AAp?$AA?9?$AAc?$AAy?$AAr?$AAl?$AA?$AA@ 00000001800207f0     LIBCMT:winapinls.obj
 0002:00005808       ??_C@_1BG@CIOGKHPB@?$AAs?$AAr?$AA?9?$AAs?$AAp?$AA?9?$AAl?$AAa?$AAt?$AAn?$AA?$AA@ 0000000180020808     LIBCMT:winapinls.obj
 0002:00005820       ??_C@_1M@NGFJLMAC@?$AAs?$AAv?$AA?9?$AAf?$AAi?$AA?$AA@ 0000000180020820     LIBCMT:winapinls.obj
 0002:00005830       ??_C@_1M@MPJEJAJC@?$AAs?$AAv?$AA?9?$AAs?$AAe?$AA?$AA@ 0000000180020830     LIBCMT:winapinls.obj
 0002:00005840       ??_C@_1M@MPNDHLFK@?$AAs?$AAw?$AA?9?$AAk?$AAe?$AA?$AA@ 0000000180020840     LIBCMT:winapinls.obj
 0002:00005850       ??_C@_1O@KOHBJJI@?$AAs?$AAy?$AAr?$AA?9?$AAs?$AAy?$AA?$AA@ 0000000180020850     LIBCMT:winapinls.obj
 0002:00005860       ??_C@_1M@LDCEFHA@?$AAt?$AAa?$AA?9?$AAi?$AAn?$AA?$AA@ 0000000180020860     LIBCMT:winapinls.obj
 0002:00005870       ??_C@_1M@CNJOFAK@?$AAt?$AAe?$AA?9?$AAi?$AAn?$AA?$AA@ 0000000180020870     LIBCMT:winapinls.obj
 0002:00005880       ??_C@_1M@GNAECACD@?$AAt?$AAh?$AA?9?$AAt?$AAh?$AA?$AA@ 0000000180020880     LIBCMT:winapinls.obj
 0002:00005890       ??_C@_1M@CHBIHOJO@?$AAt?$AAn?$AA?9?$AAz?$AAa?$AA?$AA@ 0000000180020890     LIBCMT:winapinls.obj
 0002:000058a0       ??_C@_1M@GCCMIGPJ@?$AAt?$AAr?$AA?9?$AAt?$AAr?$AA?$AA@ 00000001800208a0     LIBCMT:winapinls.obj
 0002:000058b0       ??_C@_1M@CELMCNBK@?$AAt?$AAt?$AA?9?$AAr?$AAu?$AA?$AA@ 00000001800208b0     LIBCMT:winapinls.obj
 0002:000058c0       ??_C@_1M@KLMCELGA@?$AAu?$AAk?$AA?9?$AAu?$AAa?$AA?$AA@ 00000001800208c0     LIBCMT:winapinls.obj
 0002:000058d0       ??_C@_1M@EPAJJAJF@?$AAu?$AAr?$AA?9?$AAp?$AAk?$AA?$AA@ 00000001800208d0     LIBCMT:winapinls.obj
 0002:000058e0       ??_C@_1BG@GEGPMCDJ@?$AAu?$AAz?$AA?9?$AAu?$AAz?$AA?9?$AAc?$AAy?$AAr?$AAl?$AA?$AA@ 00000001800208e0     LIBCMT:winapinls.obj
 0002:000058f8       ??_C@_1BG@EGGKJILM@?$AAu?$AAz?$AA?9?$AAu?$AAz?$AA?9?$AAl?$AAa?$AAt?$AAn?$AA?$AA@ 00000001800208f8     LIBCMT:winapinls.obj
 0002:00005910       ??_C@_1M@GFOCLFF@?$AAv?$AAi?$AA?9?$AAv?$AAn?$AA?$AA@ 0000000180020910     LIBCMT:winapinls.obj
 0002:00005920       ??_C@_1M@CPAMEDFI@?$AAx?$AAh?$AA?9?$AAz?$AAa?$AA?$AA@ 0000000180020920     LIBCMT:winapinls.obj
 0002:00005930       ??_C@_1O@EBKIFIGN@?$AAz?$AAh?$AA?9?$AAc?$AAh?$AAs?$AA?$AA@ 0000000180020930     LIBCMT:winapinls.obj
 0002:00005940       ??_C@_1O@NMHPGANE@?$AAz?$AAh?$AA?9?$AAc?$AAh?$AAt?$AA?$AA@ 0000000180020940     LIBCMT:winapinls.obj
 0002:00005950       ??_C@_1M@LPINJOMC@?$AAz?$AAh?$AA?9?$AAc?$AAn?$AA?$AA@ 0000000180020950     LIBCMT:winapinls.obj
 0002:00005960       ??_C@_1M@OCJEJODD@?$AAz?$AAh?$AA?9?$AAh?$AAk?$AA?$AA@ 0000000180020960     LIBCMT:winapinls.obj
 0002:00005970       ??_C@_1M@DNDLJINH@?$AAz?$AAh?$AA?9?$AAm?$AAo?$AA?$AA@ 0000000180020970     LIBCMT:winapinls.obj
 0002:00005980       ??_C@_1M@MBFDNDND@?$AAz?$AAh?$AA?9?$AAs?$AAg?$AA?$AA@ 0000000180020980     LIBCMT:winapinls.obj
 0002:00005990       ??_C@_1M@IMEPLEPE@?$AAz?$AAh?$AA?9?$AAt?$AAw?$AA?$AA@ 0000000180020990     LIBCMT:winapinls.obj
 0002:000059a0       ??_C@_1M@BBGHNHJP@?$AAz?$AAu?$AA?9?$AAz?$AAa?$AA?$AA@ 00000001800209a0     LIBCMT:winapinls.obj
 0002:000059ac       ??_C@_04EIAKFFMI@sqrt?$AA@ 00000001800209ac     LIBCMT:sqrt.obj
 0002:000059c8       ??_C@_1BI@BGOHAHKC@?$AAm?$AAs?$AAc?$AAo?$AAr?$AAe?$AAe?$AA?4?$AAd?$AAl?$AAl?$AA?$AA@ 00000001800209c8     LIBCMT:crt0dat.obj
 0002:000059e0       ??_C@_0P@MIGLKIOC@CorExitProcess?$AA@ 00000001800209e0     LIBCMT:crt0dat.obj
 0002:000059f0       ??_C@_06OJHGLDPL@?$CInull?$CJ?$AA@ 00000001800209f0     LIBCMT:output.obj
 0002:000059f8       ??_C@_1O@CEDCILHN@?$AA?$CI?$AAn?$AAu?$AAl?$AAl?$AA?$CJ?$AA?$AA@ 00000001800209f8     LIBCMT:output.obj
 0002:00005a10       __lookuptable              0000000180020a10     LIBCMT:output.obj
 0002:00005a6c       ??_C@_03KOEHGMDN@Sun?$AA@  0000000180020a6c     LIBCMT:nlsdata.obj
 0002:00005a70       ??_C@_03PDAGKDH@Mon?$AA@   0000000180020a70     LIBCMT:nlsdata.obj
 0002:00005a74       ??_C@_03NAGEINEP@Tue?$AA@  0000000180020a74     LIBCMT:nlsdata.obj
 0002:00005a78       ??_C@_03MHOMLAJA@Wed?$AA@  0000000180020a78     LIBCMT:nlsdata.obj
 0002:00005a7c       ??_C@_03IOFIKPDN@Thu?$AA@  0000000180020a7c     LIBCMT:nlsdata.obj
 0002:00005a80       ??_C@_03IDIOELNC@Fri?$AA@  0000000180020a80     LIBCMT:nlsdata.obj
 0002:00005a84       ??_C@_03FEFJNEK@Sat?$AA@   0000000180020a84     LIBCMT:nlsdata.obj
 0002:00005a88       ??_C@_06OOPIFAJ@Sunday?$AA@ 0000000180020a88     LIBCMT:nlsdata.obj
 0002:00005a90       ??_C@_06JLEDEDGH@Monday?$AA@ 0000000180020a90     LIBCMT:nlsdata.obj
 0002:00005a98       ??_C@_07BAAGCFCM@Tuesday?$AA@ 0000000180020a98     LIBCMT:nlsdata.obj
 0002:00005aa0       ??_C@_09DLIGFAKA@Wednesday?$AA@ 0000000180020aa0     LIBCMT:nlsdata.obj
 0002:00005ab0       ??_C@_08HACCIKIA@Thursday?$AA@ 0000000180020ab0     LIBCMT:nlsdata.obj
 0002:00005abc       ??_C@_06JECMNKMI@Friday?$AA@ 0000000180020abc     LIBCMT:nlsdata.obj
 0002:00005ac8       ??_C@_08INBOOONO@Saturday?$AA@ 0000000180020ac8     LIBCMT:nlsdata.obj
 0002:00005ad4       ??_C@_03JIHJHPIE@Jan?$AA@  0000000180020ad4     LIBCMT:nlsdata.obj
 0002:00005ad8       ??_C@_03HJBDCHOM@Feb?$AA@  0000000180020ad8     LIBCMT:nlsdata.obj
 0002:00005adc       ??_C@_03ODNJBKGA@Mar?$AA@  0000000180020adc     LIBCMT:nlsdata.obj
 0002:00005ae0       ??_C@_03LEOLGMJP@Apr?$AA@  0000000180020ae0     LIBCMT:nlsdata.obj
 0002:00005ae4       ??_C@_03CNMDKL@May?$AA@    0000000180020ae4     LIBCMT:nlsdata.obj
 0002:00005ae8       ??_C@_03IDFGHECI@Jun?$AA@  0000000180020ae8     LIBCMT:nlsdata.obj
 0002:00005aec       ??_C@_03LBGABGKK@Jul?$AA@  0000000180020aec     LIBCMT:nlsdata.obj
 0002:00005af0       ??_C@_03IFJFEIGA@Aug?$AA@  0000000180020af0     LIBCMT:nlsdata.obj
 0002:00005af4       ??_C@_03GGCAPAJC@Sep?$AA@  0000000180020af4     LIBCMT:nlsdata.obj
 0002:00005af8       ??_C@_03BMAOKBAD@Oct?$AA@  0000000180020af8     LIBCMT:nlsdata.obj
 0002:00005afc       ??_C@_03JPJOFNIA@Nov?$AA@  0000000180020afc     LIBCMT:nlsdata.obj
 0002:00005b00       ??_C@_03MKABNOCG@Dec?$AA@  0000000180020b00     LIBCMT:nlsdata.obj
 0002:00005b08       ??_C@_07CGJPFGJA@January?$AA@ 0000000180020b08     LIBCMT:nlsdata.obj
 0002:00005b10       ??_C@_08GNJGEPFN@February?$AA@ 0000000180020b10     LIBCMT:nlsdata.obj
 0002:00005b1c       ??_C@_05HPCKOFNC@March?$AA@ 0000000180020b1c     LIBCMT:nlsdata.obj
 0002:00005b24       ??_C@_05DMJDNLEJ@April?$AA@ 0000000180020b24     LIBCMT:nlsdata.obj
 0002:00005b2c       ??_C@_04CNLMGBGM@June?$AA@ 0000000180020b2c     LIBCMT:nlsdata.obj
 0002:00005b34       ??_C@_04MIEPOIFP@July?$AA@ 0000000180020b34     LIBCMT:nlsdata.obj
 0002:00005b3c       ??_C@_06LBBHFDDG@August?$AA@ 0000000180020b3c     LIBCMT:nlsdata.obj
 0002:00005b48       ??_C@_09BHHEALKD@September?$AA@ 0000000180020b48     LIBCMT:nlsdata.obj
 0002:00005b58       ??_C@_07JJNFCEND@October?$AA@ 0000000180020b58     LIBCMT:nlsdata.obj
 0002:00005b60       ??_C@_08HCHEGEOA@November?$AA@ 0000000180020b60     LIBCMT:nlsdata.obj
 0002:00005b70       ??_C@_08EDHMEBNP@December?$AA@ 0000000180020b70     LIBCMT:nlsdata.obj
 0002:00005b7c       ??_C@_02DEDBPAFC@AM?$AA@   0000000180020b7c     LIBCMT:nlsdata.obj
 0002:00005b80       ??_C@_02CJNFDJBF@PM?$AA@   0000000180020b80     LIBCMT:nlsdata.obj
 0002:00005b88       ??_C@_08BPBNCDIB@MM?1dd?1yy?$AA@ 0000000180020b88     LIBCMT:nlsdata.obj
 0002:00005b98       ??_C@_0BE@CKGJFCPC@dddd?0?5MMMM?5dd?0?5yyyy?$AA@ 0000000180020b98     LIBCMT:nlsdata.obj
 0002:00005bb0       ??_C@_08JCCMCCIL@HH?3mm?3ss?$AA@ 0000000180020bb0     LIBCMT:nlsdata.obj
 0002:00005bc0       ??_C@_17MBGCMIPB@?$AAS?$AAu?$AAn?$AA?$AA@ 0000000180020bc0     LIBCMT:nlsdata.obj
 0002:00005bc8       ??_C@_17KBOMKBF@?$AAM?$AAo?$AAn?$AA?$AA@ 0000000180020bc8     LIBCMT:nlsdata.obj
 0002:00005bd0       ??_C@_17BMKGEGOJ@?$AAT?$AAu?$AAe?$AA?$AA@ 0000000180020bd0     LIBCMT:nlsdata.obj
 0002:00005bd8       ??_C@_17CJEDCEPE@?$AAW?$AAe?$AAd?$AA?$AA@ 0000000180020bd8     LIBCMT:nlsdata.obj
 0002:00005be0       ??_C@_17PDPHAADD@?$AAT?$AAh?$AAu?$AA?$AA@ 0000000180020be0     LIBCMT:nlsdata.obj
 0002:00005be8       ??_C@_17HFOLPPLP@?$AAF?$AAr?$AAi?$AA?$AA@ 0000000180020be8     LIBCMT:nlsdata.obj
 0002:00005bf0       ??_C@_17GGIBDPIH@?$AAS?$AAa?$AAt?$AA?$AA@ 0000000180020bf0     LIBCMT:nlsdata.obj
 0002:00005bf8       ??_C@_1O@IHNHDHPB@?$AAS?$AAu?$AAn?$AAd?$AAa?$AAy?$AA?$AA@ 0000000180020bf8     LIBCMT:nlsdata.obj
 0002:00005c08       ??_C@_1O@MMNBFLIA@?$AAM?$AAo?$AAn?$AAd?$AAa?$AAy?$AA?$AA@ 0000000180020c08     LIBCMT:nlsdata.obj
 0002:00005c18       ??_C@_1BA@ENFBFFEK@?$AAT?$AAu?$AAe?$AAs?$AAd?$AAa?$AAy?$AA?$AA@ 0000000180020c18     LIBCMT:nlsdata.obj
 0002:00005c28       ??_C@_1BE@EBOGMDOH@?$AAW?$AAe?$AAd?$AAn?$AAe?$AAs?$AAd?$AAa?$AAy?$AA?$AA@ 0000000180020c28     LIBCMT:nlsdata.obj
 0002:00005c40       ??_C@_1BC@HHMNLIHE@?$AAT?$AAh?$AAu?$AAr?$AAs?$AAd?$AAa?$AAy?$AA?$AA@ 0000000180020c40     LIBCMT:nlsdata.obj
 0002:00005c58       ??_C@_1O@PDICJHAG@?$AAF?$AAr?$AAi?$AAd?$AAa?$AAy?$AA?$AA@ 0000000180020c58     LIBCMT:nlsdata.obj
 0002:00005c68       ??_C@_1BC@ENMNNPAJ@?$AAS?$AAa?$AAt?$AAu?$AAr?$AAd?$AAa?$AAy?$AA?$AA@ 0000000180020c68     LIBCMT:nlsdata.obj
 0002:00005c80       ??_C@_17DKNBKCHM@?$AAJ?$AAa?$AAn?$AA?$AA@ 0000000180020c80     LIBCMT:nlsdata.obj
 0002:00005c88       ??_C@_17LMDJEKJN@?$AAF?$AAe?$AAb?$AA?$AA@ 0000000180020c88     LIBCMT:nlsdata.obj
 0002:00005c90       ??_C@_17CKNLEDEC@?$AAM?$AAa?$AAr?$AA?$AA@ 0000000180020c90     LIBCMT:nlsdata.obj
 0002:00005c98       ??_C@_17LFPOIHDD@?$AAA?$AAp?$AAr?$AA?$AA@ 0000000180020c98     LIBCMT:nlsdata.obj
 0002:00005ca0       ??_C@_17PNNKMEED@?$AAM?$AAa?$AAy?$AA?$AA@ 0000000180020ca0     LIBCMT:nlsdata.obj
 0002:00005ca8       ??_C@_17KCJGOCPB@?$AAJ?$AAu?$AAn?$AA?$AA@ 0000000180020ca8     LIBCMT:nlsdata.obj
 0002:00005cb0       ??_C@_17IJPCKHK@?$AAJ?$AAu?$AAl?$AA?$AA@ 0000000180020cb0     LIBCMT:nlsdata.obj
 0002:00005cb8       ??_C@_17ICPELBCN@?$AAA?$AAu?$AAg?$AA?$AA@ 0000000180020cb8     LIBCMT:nlsdata.obj
 0002:00005cc0       ??_C@_17HCHCOKMG@?$AAS?$AAe?$AAp?$AA?$AA@ 0000000180020cc0     LIBCMT:nlsdata.obj
 0002:00005cc8       ??_C@_17FNLKOI@?$AAO?$AAc?$AAt?$AA?$AA@ 0000000180020cc8     LIBCMT:nlsdata.obj
 0002:00005cd0       ??_C@_17BBDMLCIG@?$AAN?$AAo?$AAv?$AA?$AA@ 0000000180020cd0     LIBCMT:nlsdata.obj
 0002:00005cd8       ??_C@_17EGKACKIF@?$AAD?$AAe?$AAc?$AA?$AA@ 0000000180020cd8     LIBCMT:nlsdata.obj
 0002:00005ce0       ??_C@_1BA@EFMEIEBA@?$AAJ?$AAa?$AAn?$AAu?$AAa?$AAr?$AAy?$AA?$AA@ 0000000180020ce0     LIBCMT:nlsdata.obj
 0002:00005cf0       ??_C@_1BC@JGDDFFAM@?$AAF?$AAe?$AAb?$AAr?$AAu?$AAa?$AAr?$AAy?$AA?$AA@ 0000000180020cf0     LIBCMT:nlsdata.obj
 0002:00005d08       ??_C@_1M@IKEENEDF@?$AAM?$AAa?$AAr?$AAc?$AAh?$AA?$AA@ 0000000180020d08     LIBCMT:nlsdata.obj
 0002:00005d18       ??_C@_1M@GJNLMHFD@?$AAA?$AAp?$AAr?$AAi?$AAl?$AA?$AA@ 0000000180020d18     LIBCMT:nlsdata.obj
 0002:00005d28       ??_C@_19EPFLPGAP@?$AAJ?$AAu?$AAn?$AAe?$AA?$AA@ 0000000180020d28     LIBCMT:nlsdata.obj
 0002:00005d38       ??_C@_19BIFMLPCD@?$AAJ?$AAu?$AAl?$AAy?$AA?$AA@ 0000000180020d38     LIBCMT:nlsdata.obj
 0002:00005d48       ??_C@_1O@PAHLKOAC@?$AAA?$AAu?$AAg?$AAu?$AAs?$AAt?$AA?$AA@ 0000000180020d48     LIBCMT:nlsdata.obj
 0002:00005d58       ??_C@_1BE@DKAAMBJL@?$AAS?$AAe?$AAp?$AAt?$AAe?$AAm?$AAb?$AAe?$AAr?$AA?$AA@ 0000000180020d58     LIBCMT:nlsdata.obj
 0002:00005d70       ??_C@_1BA@EPANDLNG@?$AAO?$AAc?$AAt?$AAo?$AAb?$AAe?$AAr?$AA?$AA@ 0000000180020d70     LIBCMT:nlsdata.obj
 0002:00005d80       ??_C@_1BC@BGLIFPF@?$AAN?$AAo?$AAv?$AAe?$AAm?$AAb?$AAe?$AAr?$AA?$AA@ 0000000180020d80     LIBCMT:nlsdata.obj
 0002:00005d98       ??_C@_1BC@FEMKIFH@?$AAD?$AAe?$AAc?$AAe?$AAm?$AAb?$AAe?$AAr?$AA?$AA@ 0000000180020d98     LIBCMT:nlsdata.obj
 0002:00005dac       ??_C@_15ODEHAHHF@?$AAA?$AAM?$AA?$AA@ 0000000180020dac     LIBCMT:nlsdata.obj
 0002:00005db4       ??_C@_15CLMNNGEL@?$AAP?$AAM?$AA?$AA@ 0000000180020db4     LIBCMT:nlsdata.obj
 0002:00005dc0       ??_C@_1BC@IEBCMHCM@?$AAM?$AAM?$AA?1?$AAd?$AAd?$AA?1?$AAy?$AAy?$AA?$AA@ 0000000180020dc0     LIBCMT:nlsdata.obj
 0002:00005dd8       ??_C@_1CI@KNAKOEBC@?$AAd?$AAd?$AAd?$AAd?$AA?0?$AA?5?$AAM?$AAM?$AAM?$AAM?$AA?5?$AAd?$AAd?$AA?0?$AA?5?$AAy?$AAy?$AAy?$AAy?$AA?$AA@ 0000000180020dd8     LIBCMT:nlsdata.obj
 0002:00005e00       ??_C@_1BC@GDGBMEMK@?$AAH?$AAH?$AA?3?$AAm?$AAm?$AA?3?$AAs?$AAs?$AA?$AA@ 0000000180020e00     LIBCMT:nlsdata.obj
 0002:00005e40       __lc_category              0000000180020e40     LIBCMT:wsetloca.obj
 0002:00005ed0       ??_C@_1O@GIFLHMA@?$AAL?$AAC?$AA_?$AAA?$AAL?$AAL?$AA?$AA@ 0000000180020ed0     LIBCMT:wsetloca.obj
 0002:00005ee0       ??_C@_1BG@PPOMIBNJ@?$AAL?$AAC?$AA_?$AAC?$AAO?$AAL?$AAL?$AAA?$AAT?$AAE?$AA?$AA@ 0000000180020ee0     LIBCMT:wsetloca.obj
 0002:00005ef8       ??_C@_1BC@FFJGAPJM@?$AAL?$AAC?$AA_?$AAC?$AAT?$AAY?$AAP?$AAE?$AA?$AA@ 0000000180020ef8     LIBCMT:wsetloca.obj
 0002:00005f10       ??_C@_1BI@PCKFNJFB@?$AAL?$AAC?$AA_?$AAM?$AAO?$AAN?$AAE?$AAT?$AAA?$AAR?$AAY?$AA?$AA@ 0000000180020f10     LIBCMT:wsetloca.obj
 0002:00005f28       ??_C@_1BG@ENIEDKID@?$AAL?$AAC?$AA_?$AAN?$AAU?$AAM?$AAE?$AAR?$AAI?$AAC?$AA?$AA@ 0000000180020f28     LIBCMT:wsetloca.obj
 0002:00005f40       ??_C@_1BA@HAAOMIIG@?$AAL?$AAC?$AA_?$AAT?$AAI?$AAM?$AAE?$AA?$AA@ 0000000180020f40     LIBCMT:wsetloca.obj
 0002:00005fd0       ??_C@_15NBPDDFIP@?$AA?$DN?$AA?$DL?$AA?$AA@ 0000000180020fd0     LIBCMT:wsetloca.obj
 0002:00005fd8       ??_C@_13PJJBFPED@?$AA?$DL?$AA?$AA@ 0000000180020fd8     LIBCMT:wsetloca.obj
 0002:00005fdc       ??_C@_13NMPKAAJP@?$AA?$DN?$AA?$AA@ 0000000180020fdc     LIBCMT:wsetloca.obj
 0002:00005fe0       ??_C@_13FHBKNHDA@?$AAC?$AA?$AA@ 0000000180020fe0     LIBCMT:wsetloca.obj
 0002:00005fe8       ??_C@_17MBJJLFDM@?$AA_?$AA?4?$AA?0?$AA?$AA@ 0000000180020fe8     LIBCMT:wsetloca.obj
 0002:00005ff0       ??_C@_13ENNFDPBH@?$AA_?$AA?$AA@ 0000000180020ff0     LIBCMT:wsetloca.obj
 0002:00005ff4       ??_C@_13JOFGPIOO@?$AA?4?$AA?$AA@ 0000000180020ff4     LIBCMT:wsetloca.obj
 0002:00006000       _XcptActTab                0000000180021000     LIBCMT:winxfltr.obj
 0002:000060c0       _XcptActTabCount           00000001800210c0     LIBCMT:winxfltr.obj
 0002:000060c4       _XcptActTabSize            00000001800210c4     LIBCMT:winxfltr.obj
 0002:000060c8       _First_FPE_Indx            00000001800210c8     LIBCMT:winxfltr.obj
 0002:000060cc       _Num_FPE                   00000001800210cc     LIBCMT:winxfltr.obj
 0002:000060d0       _pDestructExceptionObject  00000001800210d0     LIBCMT:frame.obj
 0002:000060e0       ??_7bad_exception@std@@6B@ 00000001800210e0     LIBCMT:frame.obj
 0002:000060f0       ??_C@_0O@DPKOEFFH@bad?5exception?$AA@ 00000001800210f0     LIBCMT:frame.obj
 0002:00006100       ??_C@_05KLBDPFGC@e?$CL000?$AA@ 0000000180021100     LIBCMT:cvt.obj
 0002:00006280       ??_C@_1FK@PGACCAFB@?$AAR?$AA6?$AA0?$AA0?$AA2?$AA?$AN?$AA?6?$AA?9?$AA?5?$AAf?$AAl?$AAo?$AAa?$AAt?$AAi?$AAn?$AAg?$AA?5?$AAp?$AAo?$AAi?$AAn?$AAt?$AA?5?$AAs?$AAu?$AAp?$AAp?$AAo?$AAr?$AAt?$AA?5@ 0000000180021280     LIBCMT:crt0msg.obj
 0002:000062e0       ??_C@_1FE@LLNEDJMD@?$AAR?$AA6?$AA0?$AA0?$AA8?$AA?$AN?$AA?6?$AA?9?$AA?5?$AAn?$AAo?$AAt?$AA?5?$AAe?$AAn?$AAo?$AAu?$AAg?$AAh?$AA?5?$AAs?$AAp?$AAa?$AAc?$AAe?$AA?5?$AAf?$AAo?$AAr?$AA?5?$AAa?$AAr@ 00000001800212e0     LIBCMT:crt0msg.obj
 0002:00006340       ??_C@_1FI@HONFMGBI@?$AAR?$AA6?$AA0?$AA0?$AA9?$AA?$AN?$AA?6?$AA?9?$AA?5?$AAn?$AAo?$AAt?$AA?5?$AAe?$AAn?$AAo?$AAu?$AAg?$AAh?$AA?5?$AAs?$AAp?$AAa?$AAc?$AAe?$AA?5?$AAf?$AAo?$AAr?$AA?5?$AAe?$AAn@ 0000000180021340     LIBCMT:crt0msg.obj
 0002:000063a0       ??_C@_1EG@BEHAGFJD@?$AAR?$AA6?$AA0?$AA1?$AA0?$AA?$AN?$AA?6?$AA?9?$AA?5?$AAa?$AAb?$AAo?$AAr?$AAt?$AA?$CI?$AA?$CJ?$AA?5?$AAh?$AAa?$AAs?$AA?5?$AAb?$AAe?$AAe?$AAn?$AA?5?$AAc?$AAa?$AAl?$AAl?$AAe?$AAd@ 00000001800213a0     LIBCMT:crt0msg.obj
 0002:000063f0       ??_C@_1FI@LOGNIKDM@?$AAR?$AA6?$AA0?$AA1?$AA6?$AA?$AN?$AA?6?$AA?9?$AA?5?$AAn?$AAo?$AAt?$AA?5?$AAe?$AAn?$AAo?$AAu?$AAg?$AAh?$AA?5?$AAs?$AAp?$AAa?$AAc?$AAe?$AA?5?$AAf?$AAo?$AAr?$AA?5?$AAt?$AAh@ 00000001800213f0     LIBCMT:crt0msg.obj
 0002:00006450       ??_C@_1FK@BEOGODMC@?$AAR?$AA6?$AA0?$AA1?$AA7?$AA?$AN?$AA?6?$AA?9?$AA?5?$AAu?$AAn?$AAe?$AAx?$AAp?$AAe?$AAc?$AAt?$AAe?$AAd?$AA?5?$AAm?$AAu?$AAl?$AAt?$AAi?$AAt?$AAh?$AAr?$AAe?$AAa?$AAd?$AA?5@ 0000000180021450     LIBCMT:crt0msg.obj
 0002:000064b0       ??_C@_1EC@JIBHAOPH@?$AAR?$AA6?$AA0?$AA1?$AA8?$AA?$AN?$AA?6?$AA?9?$AA?5?$AAu?$AAn?$AAe?$AAx?$AAp?$AAe?$AAc?$AAt?$AAe?$AAd?$AA?5?$AAh?$AAe?$AAa?$AAp?$AA?5?$AAe?$AAr?$AAr?$AAo?$AAr?$AA?$AN?$AA?6@ 00000001800214b0     LIBCMT:crt0msg.obj
 0002:00006500       ??_C@_1FC@ECHBIFBC@?$AAR?$AA6?$AA0?$AA1?$AA9?$AA?$AN?$AA?6?$AA?9?$AA?5?$AAu?$AAn?$AAa?$AAb?$AAl?$AAe?$AA?5?$AAt?$AAo?$AA?5?$AAo?$AAp?$AAe?$AAn?$AA?5?$AAc?$AAo?$AAn?$AAs?$AAo?$AAl?$AAe?$AA?5@ 0000000180021500     LIBCMT:crt0msg.obj
 0002:00006560       ??_C@_1GK@FHCKBEFA@?$AAR?$AA6?$AA0?$AA2?$AA4?$AA?$AN?$AA?6?$AA?9?$AA?5?$AAn?$AAo?$AAt?$AA?5?$AAe?$AAn?$AAo?$AAu?$AAg?$AAh?$AA?5?$AAs?$AAp?$AAa?$AAc?$AAe?$AA?5?$AAf?$AAo?$AAr?$AA?5?$AA_?$AAo@ 0000000180021560     LIBCMT:crt0msg.obj
 0002:000065d0       ??_C@_1EM@MAADIHMB@?$AAR?$AA6?$AA0?$AA2?$AA5?$AA?$AN?$AA?6?$AA?9?$AA?5?$AAp?$AAu?$AAr?$AAe?$AA?5?$AAv?$AAi?$AAr?$AAt?$AAu?$AAa?$AAl?$AA?5?$AAf?$AAu?$AAn?$AAc?$AAt?$AAi?$AAo?$AAn?$AA?5?$AAc@ 00000001800215d0     LIBCMT:crt0msg.obj
 0002:00006620       ??_C@_1GK@MCAAGJMO@?$AAR?$AA6?$AA0?$AA2?$AA6?$AA?$AN?$AA?6?$AA?9?$AA?5?$AAn?$AAo?$AAt?$AA?5?$AAe?$AAn?$AAo?$AAu?$AAg?$AAh?$AA?5?$AAs?$AAp?$AAa?$AAc?$AAe?$AA?5?$AAf?$AAo?$AAr?$AA?5?$AAs?$AAt@ 0000000180021620     LIBCMT:crt0msg.obj
 0002:00006690       ??_C@_1GK@MFGOKLAG@?$AAR?$AA6?$AA0?$AA2?$AA7?$AA?$AN?$AA?6?$AA?9?$AA?5?$AAn?$AAo?$AAt?$AA?5?$AAe?$AAn?$AAo?$AAu?$AAg?$AAh?$AA?5?$AAs?$AAp?$AAa?$AAc?$AAe?$AA?5?$AAf?$AAo?$AAr?$AA?5?$AAl?$AAo@ 0000000180021690     LIBCMT:crt0msg.obj
 0002:00006700       ??_C@_1EK@HHFLMAOL@?$AAR?$AA6?$AA0?$AA2?$AA8?$AA?$AN?$AA?6?$AA?9?$AA?5?$AAu?$AAn?$AAa?$AAb?$AAl?$AAe?$AA?5?$AAt?$AAo?$AA?5?$AAi?$AAn?$AAi?$AAt?$AAi?$AAa?$AAl?$AAi?$AAz?$AAe?$AA?5?$AAh?$AAe@ 0000000180021700     LIBCMT:crt0msg.obj
 0002:00006750       ??_C@_1DO@BMFCDCD@?$AAR?$AA6?$AA0?$AA3?$AA0?$AA?$AN?$AA?6?$AA?9?$AA?5?$AAC?$AAR?$AAT?$AA?5?$AAn?$AAo?$AAt?$AA?5?$AAi?$AAn?$AAi?$AAt?$AAi?$AAa?$AAl?$AAi?$AAz?$AAe?$AAd?$AA?$AN?$AA?6?$AA?$AA@ 0000000180021750     LIBCMT:crt0msg.obj
 0002:00006790       ??_C@_1MG@ENCOOIDF@?$AAR?$AA6?$AA0?$AA3?$AA1?$AA?$AN?$AA?6?$AA?9?$AA?5?$AAA?$AAt?$AAt?$AAe?$AAm?$AAp?$AAt?$AA?5?$AAt?$AAo?$AA?5?$AAi?$AAn?$AAi?$AAt?$AAi?$AAa?$AAl?$AAi?$AAz?$AAe?$AA?5?$AAt@ 0000000180021790     LIBCMT:crt0msg.obj
 0002:00006860       ??_C@_1GG@GOPILAJP@?$AAR?$AA6?$AA0?$AA3?$AA2?$AA?$AN?$AA?6?$AA?9?$AA?5?$AAn?$AAo?$AAt?$AA?5?$AAe?$AAn?$AAo?$AAu?$AAg?$AAh?$AA?5?$AAs?$AAp?$AAa?$AAc?$AAe?$AA?5?$AAf?$AAo?$AAr?$AA?5?$AAl?$AAo@ 0000000180021860     LIBCMT:crt0msg.obj
 0002:000068d0       ??_C@_1BOO@KGEDBGAJ@?$AAR?$AA6?$AA0?$AA3?$AA3?$AA?$AN?$AA?6?$AA?9?$AA?5?$AAA?$AAt?$AAt?$AAe?$AAm?$AAp?$AAt?$AA?5?$AAt?$AAo?$AA?5?$AAu?$AAs?$AAe?$AA?5?$AAM?$AAS?$AAI?$AAL?$AA?5?$AAc?$AAo?$AAd@ 00000001800218d0     LIBCMT:crt0msg.obj
 0002:00006ac0       ??_C@_1GG@MKFPEKFO@?$AAR?$AA6?$AA0?$AA3?$AA4?$AA?$AN?$AA?6?$AA?9?$AA?5?$AAi?$AAn?$AAc?$AAo?$AAn?$AAs?$AAi?$AAs?$AAt?$AAe?$AAn?$AAt?$AA?5?$AAo?$AAn?$AAe?$AAx?$AAi?$AAt?$AA?5?$AAb?$AAe?$AAg@ 0000000180021ac0     LIBCMT:crt0msg.obj
 0002:00006b28       ??_C@_1BO@BFCDCGC@?$AAD?$AAO?$AAM?$AAA?$AAI?$AAN?$AA?5?$AAe?$AAr?$AAr?$AAo?$AAr?$AA?$AN?$AA?6?$AA?$AA@ 0000000180021b28     LIBCMT:crt0msg.obj
 0002:00006b48       ??_C@_1BK@KMOMNAAI@?$AAS?$AAI?$AAN?$AAG?$AA?5?$AAe?$AAr?$AAr?$AAo?$AAr?$AA?$AN?$AA?6?$AA?$AA@ 0000000180021b48     LIBCMT:crt0msg.obj
 0002:00006b68       ??_C@_1BM@JBBEPPHI@?$AAT?$AAL?$AAO?$AAS?$AAS?$AA?5?$AAe?$AAr?$AAr?$AAo?$AAr?$AA?$AN?$AA?6?$AA?$AA@ 0000000180021b68     LIBCMT:crt0msg.obj
 0002:00006b84       ??_C@_15JNBOKNOG@?$AA?$AN?$AA?6?$AA?$AA@ 0000000180021b84     LIBCMT:crt0msg.obj
 0002:00006b90       ??_C@_1BO@BKOMIGKJ@?$AAr?$AAu?$AAn?$AAt?$AAi?$AAm?$AAe?$AA?5?$AAe?$AAr?$AAr?$AAo?$AAr?$AA?5?$AA?$AA@ 0000000180021b90     LIBCMT:crt0msg.obj
 0002:00006bb0       ??_C@_1DE@JNGNBFGO@?$AAR?$AAu?$AAn?$AAt?$AAi?$AAm?$AAe?$AA?5?$AAE?$AAr?$AAr?$AAo?$AAr?$AA?$CB?$AA?6?$AA?6?$AAP?$AAr?$AAo?$AAg?$AAr?$AAa?$AAm?$AA?3?$AA?5?$AA?$AA@ 0000000180021bb0     LIBCMT:crt0msg.obj
 0002:00006be8       ??_C@_1CO@EAEJAADC@?$AA?$DM?$AAp?$AAr?$AAo?$AAg?$AAr?$AAa?$AAm?$AA?5?$AAn?$AAa?$AAm?$AAe?$AA?5?$AAu?$AAn?$AAk?$AAn?$AAo?$AAw?$AAn?$AA?$DO?$AA?$AA@ 0000000180021be8     LIBCMT:crt0msg.obj
 0002:00006c18       ??_C@_17LGKOMLJ@?$AA?4?$AA?4?$AA?4?$AA?$AA@ 0000000180021c18     LIBCMT:crt0msg.obj
 0002:00006c20       ??_C@_15IABLJNFO@?$AA?6?$AA?6?$AA?$AA@ 0000000180021c20     LIBCMT:crt0msg.obj
 0002:00006c30       ??_C@_1EK@MBDPDCGA@?$AAM?$AAi?$AAc?$AAr?$AAo?$AAs?$AAo?$AAf?$AAt?$AA?5?$AAV?$AAi?$AAs?$AAu?$AAa?$AAl?$AA?5?$AAC?$AA?$CL?$AA?$CL?$AA?5?$AAR?$AAu?$AAn?$AAt?$AAi?$AAm?$AAe?$AA?5?$AAL?$AAi?$AAb@ 0000000180021c30     LIBCMT:crt0msg.obj
 0002:00006c7c       ??_C@_03KHJOGHMM@exp?$AA@  0000000180021c7c     LIBCMT:fpexcept.obj
 0002:00006c80       ??_C@_03JGHBODFD@pow?$AA@  0000000180021c80     LIBCMT:fpexcept.obj
 0002:00006c84       ??_C@_03MGHMBJCF@log?$AA@  0000000180021c84     LIBCMT:fpexcept.obj
 0002:00006c88       ??_C@_05HGHHAHAP@log10?$AA@ 0000000180021c88     LIBCMT:fpexcept.obj
 0002:00006c90       ??_C@_04COOMCNPB@sinh?$AA@ 0000000180021c90     LIBCMT:fpexcept.obj
 0002:00006c98       ??_C@_04HPJJNFIM@cosh?$AA@ 0000000180021c98     LIBCMT:fpexcept.obj
 0002:00006ca0       ??_C@_04FJHINJAO@tanh?$AA@ 0000000180021ca0     LIBCMT:fpexcept.obj
 0002:00006ca8       ??_C@_04FIHNOPOL@asin?$AA@ 0000000180021ca8     LIBCMT:fpexcept.obj
 0002:00006cb0       ??_C@_04PDIFKINK@acos?$AA@ 0000000180021cb0     LIBCMT:fpexcept.obj
 0002:00006cb8       ??_C@_04MLLJIGOK@atan?$AA@ 0000000180021cb8     LIBCMT:fpexcept.obj
 0002:00006cc0       ??_C@_05KNGEOGJB@atan2?$AA@ 0000000180021cc0     LIBCMT:fpexcept.obj
 0002:00006cc8       ??_C@_03BLEJJJBH@sin?$AA@  0000000180021cc8     LIBCMT:fpexcept.obj
 0002:00006ccc       ??_C@_03LALBNOCG@cos?$AA@  0000000180021ccc     LIBCMT:fpexcept.obj
 0002:00006cd0       ??_C@_03IIINPABG@tan?$AA@  0000000180021cd0     LIBCMT:fpexcept.obj
 0002:00006cd4       ??_C@_04GFPJNGEK@ceil?$AA@ 0000000180021cd4     LIBCMT:fpexcept.obj
 0002:00006cdc       ??_C@_05PBJFFIGL@floor?$AA@ 0000000180021cdc     LIBCMT:fpexcept.obj
 0002:00006ce4       ??_C@_04ODHECPBC@fabs?$AA@ 0000000180021ce4     LIBCMT:fpexcept.obj
 0002:00006cec       ??_C@_04EHEDPDJG@modf?$AA@ 0000000180021cec     LIBCMT:fpexcept.obj
 0002:00006cf4       ??_C@_05CEJMAHNP@ldexp?$AA@ 0000000180021cf4     LIBCMT:fpexcept.obj
 0002:00006cfc       ??_C@_05KBKMEMPO@_cabs?$AA@ 0000000180021cfc     LIBCMT:fpexcept.obj
 0002:00006d04       ??_C@_04KEPJIHGP@fmod?$AA@ 0000000180021d04     LIBCMT:fpexcept.obj
 0002:00006d0c       ??_C@_05GKKHEGJL@frexp?$AA@ 0000000180021d0c     LIBCMT:fpexcept.obj
 0002:00006d14       ??_C@_03MJLDFKDL@_y0?$AA@  0000000180021d14     LIBCMT:fpexcept.obj
 0002:00006d18       ??_C@_03NAKIGLHK@_y1?$AA@  0000000180021d18     LIBCMT:fpexcept.obj
 0002:00006d1c       ??_C@_03ONILCKOB@_yn?$AA@  0000000180021d1c     LIBCMT:fpexcept.obj
 0002:00006d20       ??_C@_05JGDBENOH@_logb?$AA@ 0000000180021d20     LIBCMT:fpexcept.obj
 0002:00006d28       ??_C@_0L@KDOEJCKC@_nextafter?$AA@ 0000000180021d28     LIBCMT:fpexcept.obj
 0002:00006d38       __dnames                   0000000180021d38     LIBCMT:timeset.obj
 0002:00006d50       __mnames                   0000000180021d50     LIBCMT:timeset.obj
 0002:00006d80       __lookuptable_s            0000000180021d80     LIBCMT:outputs.obj
 0002:00006df0       __rg_language              0000000180021df0     LIBCMT:getqloc.obj
 0002:00007200       ??_C@_1BC@LLOKLNP@?$AAa?$AAm?$AAe?$AAr?$AAi?$AAc?$AAa?$AAn?$AA?$AA@ 0000000180022200     LIBCMT:getqloc.obj
 0002:00007218       ??_C@_1CC@HEIGCDGG@?$AAa?$AAm?$AAe?$AAr?$AAi?$AAc?$AAa?$AAn?$AA?5?$AAe?$AAn?$AAg?$AAl?$AAi?$AAs?$AAh?$AA?$AA@ 0000000180022218     LIBCMT:getqloc.obj
 0002:00007240       ??_C@_1CC@IHCNOMIN@?$AAa?$AAm?$AAe?$AAr?$AAi?$AAc?$AAa?$AAn?$AA?9?$AAe?$AAn?$AAg?$AAl?$AAi?$AAs?$AAh?$AA?$AA@ 0000000180022240     LIBCMT:getqloc.obj
 0002:00007268       ??_C@_1BG@GKAGPCGG@?$AAa?$AAu?$AAs?$AAt?$AAr?$AAa?$AAl?$AAi?$AAa?$AAn?$AA?$AA@ 0000000180022268     LIBCMT:getqloc.obj
 0002:00007280       ??_C@_1BA@GMENCENF@?$AAb?$AAe?$AAl?$AAg?$AAi?$AAa?$AAn?$AA?$AA@ 0000000180022280     LIBCMT:getqloc.obj
 0002:00007290       ??_C@_1BC@PJMIIAAN@?$AAc?$AAa?$AAn?$AAa?$AAd?$AAi?$AAa?$AAn?$AA?$AA@ 0000000180022290     LIBCMT:getqloc.obj
 0002:000072a8       ??_C@_17NOIMNFBF@?$AAc?$AAh?$AAh?$AA?$AA@ 00000001800222a8     LIBCMT:getqloc.obj
 0002:000072b0       ??_C@_17GGDALCHA@?$AAc?$AAh?$AAi?$AA?$AA@ 00000001800222b0     LIBCMT:getqloc.obj
 0002:000072b8       ??_C@_1BA@NPNJKIBL@?$AAc?$AAh?$AAi?$AAn?$AAe?$AAs?$AAe?$AA?$AA@ 00000001800222b8     LIBCMT:getqloc.obj
 0002:000072c8       ??_C@_1CC@DINBAMMJ@?$AAc?$AAh?$AAi?$AAn?$AAe?$AAs?$AAe?$AA?9?$AAh?$AAo?$AAn?$AAg?$AAk?$AAo?$AAn?$AAg?$AA?$AA@ 00000001800222c8     LIBCMT:getqloc.obj
 0002:000072f0       ??_C@_1CG@IOBJPACO@?$AAc?$AAh?$AAi?$AAn?$AAe?$AAs?$AAe?$AA?9?$AAs?$AAi?$AAm?$AAp?$AAl?$AAi?$AAf?$AAi?$AAe?$AAd?$AA?$AA@ 00000001800222f0     LIBCMT:getqloc.obj
 0002:00007318       ??_C@_1CE@GAJNDCKG@?$AAc?$AAh?$AAi?$AAn?$AAe?$AAs?$AAe?$AA?9?$AAs?$AAi?$AAn?$AAg?$AAa?$AAp?$AAo?$AAr?$AAe?$AA?$AA@ 0000000180022318     LIBCMT:getqloc.obj
 0002:00007340       ??_C@_1CI@PAJPIOOD@?$AAc?$AAh?$AAi?$AAn?$AAe?$AAs?$AAe?$AA?9?$AAt?$AAr?$AAa?$AAd?$AAi?$AAt?$AAi?$AAo?$AAn?$AAa?$AAl?$AA?$AA@ 0000000180022340     LIBCMT:getqloc.obj
 0002:00007368       ??_C@_1BM@NILJBMMD@?$AAd?$AAu?$AAt?$AAc?$AAh?$AA?9?$AAb?$AAe?$AAl?$AAg?$AAi?$AAa?$AAn?$AA?$AA@ 0000000180022368     LIBCMT:getqloc.obj
 0002:00007388       ??_C@_1CC@OOJPJNEJ@?$AAe?$AAn?$AAg?$AAl?$AAi?$AAs?$AAh?$AA?9?$AAa?$AAm?$AAe?$AAr?$AAi?$AAc?$AAa?$AAn?$AA?$AA@ 0000000180022388     LIBCMT:getqloc.obj
 0002:000073b0       ??_C@_1BI@IOLFEEM@?$AAe?$AAn?$AAg?$AAl?$AAi?$AAs?$AAh?$AA?9?$AAa?$AAu?$AAs?$AA?$AA@ 00000001800223b0     LIBCMT:getqloc.obj
 0002:000073c8       ??_C@_1BO@HFFNLENJ@?$AAe?$AAn?$AAg?$AAl?$AAi?$AAs?$AAh?$AA?9?$AAb?$AAe?$AAl?$AAi?$AAz?$AAe?$AA?$AA@ 00000001800223c8     LIBCMT:getqloc.obj
 0002:000073e8       ??_C@_1BI@HAPKJMPO@?$AAe?$AAn?$AAg?$AAl?$AAi?$AAs?$AAh?$AA?9?$AAc?$AAa?$AAn?$AA?$AA@ 00000001800223e8     LIBCMT:getqloc.obj
 0002:00007400       ??_C@_1CE@HLNDMIOJ@?$AAe?$AAn?$AAg?$AAl?$AAi?$AAs?$AAh?$AA?9?$AAc?$AAa?$AAr?$AAi?$AAb?$AAb?$AAe?$AAa?$AAn?$AA?$AA@ 0000000180022400     LIBCMT:getqloc.obj
 0002:00007428       ??_C@_1BI@LDHJHHAC@?$AAe?$AAn?$AAg?$AAl?$AAi?$AAs?$AAh?$AA?9?$AAi?$AAr?$AAe?$AA?$AA@ 0000000180022428     LIBCMT:getqloc.obj
 0002:00007440       ??_C@_1CA@NJMMCFOC@?$AAe?$AAn?$AAg?$AAl?$AAi?$AAs?$AAh?$AA?9?$AAj?$AAa?$AAm?$AAa?$AAi?$AAc?$AAa?$AA?$AA@ 0000000180022440     LIBCMT:getqloc.obj
 0002:00007460       ??_C@_1BG@BHJEBBGG@?$AAe?$AAn?$AAg?$AAl?$AAi?$AAs?$AAh?$AA?9?$AAn?$AAz?$AA?$AA@ 0000000180022460     LIBCMT:getqloc.obj
 0002:00007478       ??_C@_1CK@FGOEJJCO@?$AAe?$AAn?$AAg?$AAl?$AAi?$AAs?$AAh?$AA?9?$AAs?$AAo?$AAu?$AAt?$AAh?$AA?5?$AAa?$AAf?$AAr?$AAi?$AAc?$AAa?$AA?$AA@ 0000000180022478     LIBCMT:getqloc.obj
 0002:000074a8       ??_C@_1DE@PDBJPCJ@?$AAe?$AAn?$AAg?$AAl?$AAi?$AAs?$AAh?$AA?9?$AAt?$AAr?$AAi?$AAn?$AAi?$AAd?$AAa?$AAd?$AA?5?$AAy?$AA?5?$AAt?$AAo?$AAb?$AAa?$AAg?$AAo?$AA?$AA@ 00000001800224a8     LIBCMT:getqloc.obj
 0002:000074e0       ??_C@_1BG@JGCANDME@?$AAe?$AAn?$AAg?$AAl?$AAi?$AAs?$AAh?$AA?9?$AAu?$AAk?$AA?$AA@ 00000001800224e0     LIBCMT:getqloc.obj
 0002:000074f8       ??_C@_1BG@DINKMLE@?$AAe?$AAn?$AAg?$AAl?$AAi?$AAs?$AAh?$AA?9?$AAu?$AAs?$AA?$AA@ 00000001800224f8     LIBCMT:getqloc.obj
 0002:00007510       ??_C@_1BI@NMFDBHJE@?$AAe?$AAn?$AAg?$AAl?$AAi?$AAs?$AAh?$AA?9?$AAu?$AAs?$AAa?$AA?$AA@ 0000000180022510     LIBCMT:getqloc.obj
 0002:00007528       ??_C@_1BO@OIHKJKII@?$AAf?$AAr?$AAe?$AAn?$AAc?$AAh?$AA?9?$AAb?$AAe?$AAl?$AAg?$AAi?$AAa?$AAn?$AA?$AA@ 0000000180022528     LIBCMT:getqloc.obj
 0002:00007548       ??_C@_1CA@NKAELJKI@?$AAf?$AAr?$AAe?$AAn?$AAc?$AAh?$AA?9?$AAc?$AAa?$AAn?$AAa?$AAd?$AAi?$AAa?$AAn?$AA?$AA@ 0000000180022548     LIBCMT:getqloc.obj
 0002:00007568       ??_C@_1CE@MGKCNLGN@?$AAf?$AAr?$AAe?$AAn?$AAc?$AAh?$AA?9?$AAl?$AAu?$AAx?$AAe?$AAm?$AAb?$AAo?$AAu?$AAr?$AAg?$AA?$AA@ 0000000180022568     LIBCMT:getqloc.obj
 0002:00007590       ??_C@_1BK@CEGEAILM@?$AAf?$AAr?$AAe?$AAn?$AAc?$AAh?$AA?9?$AAs?$AAw?$AAi?$AAs?$AAs?$AA?$AA@ 0000000180022590     LIBCMT:getqloc.obj
 0002:000075b0       ??_C@_1CA@PAFKEOCC@?$AAg?$AAe?$AAr?$AAm?$AAa?$AAn?$AA?9?$AAa?$AAu?$AAs?$AAt?$AAr?$AAi?$AAa?$AAn?$AA?$AA@ 00000001800225b0     LIBCMT:getqloc.obj
 0002:000075d0       ??_C@_1CI@HCFHGOFD@?$AAg?$AAe?$AAr?$AAm?$AAa?$AAn?$AA?9?$AAl?$AAi?$AAc?$AAh?$AAt?$AAe?$AAn?$AAs?$AAt?$AAe?$AAi?$AAn?$AA?$AA@ 00000001800225d0     LIBCMT:getqloc.obj
 0002:000075f8       ??_C@_1CE@FEDDNPDG@?$AAg?$AAe?$AAr?$AAm?$AAa?$AAn?$AA?9?$AAl?$AAu?$AAx?$AAe?$AAm?$AAb?$AAo?$AAu?$AAr?$AAg?$AA?$AA@ 00000001800225f8     LIBCMT:getqloc.obj
 0002:00007620       ??_C@_1BK@LIMINNMN@?$AAg?$AAe?$AAr?$AAm?$AAa?$AAn?$AA?9?$AAs?$AAw?$AAi?$AAs?$AAs?$AA?$AA@ 0000000180022620     LIBCMT:getqloc.obj
 0002:00007640       ??_C@_1BM@LGMDBEPD@?$AAi?$AAr?$AAi?$AAs?$AAh?$AA?9?$AAe?$AAn?$AAg?$AAl?$AAi?$AAs?$AAh?$AA?$AA@ 0000000180022640     LIBCMT:getqloc.obj
 0002:00007660       ??_C@_1BM@NNCFBAEE@?$AAi?$AAt?$AAa?$AAl?$AAi?$AAa?$AAn?$AA?9?$AAs?$AAw?$AAi?$AAs?$AAs?$AA?$AA@ 0000000180022660     LIBCMT:getqloc.obj
 0002:00007680       ??_C@_1BE@FEDJNPIB@?$AAn?$AAo?$AAr?$AAw?$AAe?$AAg?$AAi?$AAa?$AAn?$AA?$AA@ 0000000180022680     LIBCMT:getqloc.obj
 0002:00007698       ??_C@_1CC@CILKDEIE@?$AAn?$AAo?$AAr?$AAw?$AAe?$AAg?$AAi?$AAa?$AAn?$AA?9?$AAb?$AAo?$AAk?$AAm?$AAa?$AAl?$AA?$AA@ 0000000180022698     LIBCMT:getqloc.obj
 0002:000076c0       ??_C@_1CE@DHMMHEPL@?$AAn?$AAo?$AAr?$AAw?$AAe?$AAg?$AAi?$AAa?$AAn?$AA?9?$AAn?$AAy?$AAn?$AAo?$AAr?$AAs?$AAk?$AA?$AA@ 00000001800226c0     LIBCMT:getqloc.obj
 0002:000076e8       ??_C@_1CK@OPNMHECD@?$AAp?$AAo?$AAr?$AAt?$AAu?$AAg?$AAu?$AAe?$AAs?$AAe?$AA?9?$AAb?$AAr?$AAa?$AAz?$AAi?$AAl?$AAi?$AAa?$AAn?$AA?$AA@ 00000001800226e8     LIBCMT:getqloc.obj
 0002:00007718       ??_C@_1CE@KEEHCDB@?$AAs?$AAp?$AAa?$AAn?$AAi?$AAs?$AAh?$AA?9?$AAa?$AAr?$AAg?$AAe?$AAn?$AAt?$AAi?$AAn?$AAa?$AA?$AA@ 0000000180022718     LIBCMT:getqloc.obj
 0002:00007740       ??_C@_1CA@GIAOLHJD@?$AAs?$AAp?$AAa?$AAn?$AAi?$AAs?$AAh?$AA?9?$AAb?$AAo?$AAl?$AAi?$AAv?$AAi?$AAa?$AA?$AA@ 0000000180022740     LIBCMT:getqloc.obj
 0002:00007760       ??_C@_1BM@OJNDFNPD@?$AAs?$AAp?$AAa?$AAn?$AAi?$AAs?$AAh?$AA?9?$AAc?$AAh?$AAi?$AAl?$AAe?$AA?$AA@ 0000000180022760     LIBCMT:getqloc.obj
 0002:00007780       ??_C@_1CC@OCOLPALL@?$AAs?$AAp?$AAa?$AAn?$AAi?$AAs?$AAh?$AA?9?$AAc?$AAo?$AAl?$AAo?$AAm?$AAb?$AAi?$AAa?$AA?$AA@ 0000000180022780     LIBCMT:getqloc.obj
 0002:000077a8       ??_C@_1CG@BPOFMKBB@?$AAs?$AAp?$AAa?$AAn?$AAi?$AAs?$AAh?$AA?9?$AAc?$AAo?$AAs?$AAt?$AAa?$AA?5?$AAr?$AAi?$AAc?$AAa?$AA?$AA@ 00000001800227a8     LIBCMT:getqloc.obj
 0002:000077d0       ??_C@_1DG@IGOBAPBB@?$AAs?$AAp?$AAa?$AAn?$AAi?$AAs?$AAh?$AA?9?$AAd?$AAo?$AAm?$AAi?$AAn?$AAi?$AAc?$AAa?$AAn?$AA?5?$AAr?$AAe?$AAp?$AAu?$AAb?$AAl?$AAi?$AAc?$AA?$AA@ 00000001800227d0     LIBCMT:getqloc.obj
 0002:00007808       ??_C@_1CA@JHAPGEGI@?$AAs?$AAp?$AAa?$AAn?$AAi?$AAs?$AAh?$AA?9?$AAe?$AAc?$AAu?$AAa?$AAd?$AAo?$AAr?$AA?$AA@ 0000000180022808     LIBCMT:getqloc.obj
 0002:00007828       ??_C@_1CI@LAPALJPP@?$AAs?$AAp?$AAa?$AAn?$AAi?$AAs?$AAh?$AA?9?$AAe?$AAl?$AA?5?$AAs?$AAa?$AAl?$AAv?$AAa?$AAd?$AAo?$AAr?$AA?$AA@ 0000000180022828     LIBCMT:getqloc.obj
 0002:00007850       ??_C@_1CE@PDGBOFOM@?$AAs?$AAp?$AAa?$AAn?$AAi?$AAs?$AAh?$AA?9?$AAg?$AAu?$AAa?$AAt?$AAe?$AAm?$AAa?$AAl?$AAa?$AA?$AA@ 0000000180022850     LIBCMT:getqloc.obj
 0002:00007878       ??_C@_1CC@NBEBAODI@?$AAs?$AAp?$AAa?$AAn?$AAi?$AAs?$AAh?$AA?9?$AAh?$AAo?$AAn?$AAd?$AAu?$AAr?$AAa?$AAs?$AA?$AA@ 0000000180022878     LIBCMT:getqloc.obj
 0002:000078a0       ??_C@_1CA@LLKGHBMF@?$AAs?$AAp?$AAa?$AAn?$AAi?$AAs?$AAh?$AA?9?$AAm?$AAe?$AAx?$AAi?$AAc?$AAa?$AAn?$AA?$AA@ 00000001800228a0     LIBCMT:getqloc.obj
 0002:000078c0       ??_C@_1BO@LKNDOIGD@?$AAs?$AAp?$AAa?$AAn?$AAi?$AAs?$AAh?$AA?9?$AAm?$AAo?$AAd?$AAe?$AAr?$AAn?$AA?$AA@ 00000001800228c0     LIBCMT:getqloc.obj
 0002:000078e0       ??_C@_1CE@NMDMOEEB@?$AAs?$AAp?$AAa?$AAn?$AAi?$AAs?$AAh?$AA?9?$AAn?$AAi?$AAc?$AAa?$AAr?$AAa?$AAg?$AAu?$AAa?$AA?$AA@ 00000001800228e0     LIBCMT:getqloc.obj
 0002:00007908       ??_C@_1BO@LLCBEJGB@?$AAs?$AAp?$AAa?$AAn?$AAi?$AAs?$AAh?$AA?9?$AAp?$AAa?$AAn?$AAa?$AAm?$AAa?$AA?$AA@ 0000000180022908     LIBCMT:getqloc.obj
 0002:00007928       ??_C@_1CC@FKPGGIHO@?$AAs?$AAp?$AAa?$AAn?$AAi?$AAs?$AAh?$AA?9?$AAp?$AAa?$AAr?$AAa?$AAg?$AAu?$AAa?$AAy?$AA?$AA@ 0000000180022928     LIBCMT:getqloc.obj
 0002:00007950       ??_C@_1BK@CDEIHOOP@?$AAs?$AAp?$AAa?$AAn?$AAi?$AAs?$AAh?$AA?9?$AAp?$AAe?$AAr?$AAu?$AA?$AA@ 0000000180022950     LIBCMT:getqloc.obj
 0002:00007970       ??_C@_1CI@GAHAKKGP@?$AAs?$AAp?$AAa?$AAn?$AAi?$AAs?$AAh?$AA?9?$AAp?$AAu?$AAe?$AAr?$AAt?$AAo?$AA?5?$AAr?$AAi?$AAc?$AAo?$AA?$AA@ 0000000180022970     LIBCMT:getqloc.obj
 0002:00007998       ??_C@_1CA@NKJBCAGP@?$AAs?$AAp?$AAa?$AAn?$AAi?$AAs?$AAh?$AA?9?$AAu?$AAr?$AAu?$AAg?$AAu?$AAa?$AAy?$AA?$AA@ 0000000180022998     LIBCMT:getqloc.obj
 0002:000079b8       ??_C@_1CE@ODILCONM@?$AAs?$AAp?$AAa?$AAn?$AAi?$AAs?$AAh?$AA?9?$AAv?$AAe?$AAn?$AAe?$AAz?$AAu?$AAe?$AAl?$AAa?$AA?$AA@ 00000001800229b8     LIBCMT:getqloc.obj
 0002:000079e0       ??_C@_1CA@OBNMCGFO@?$AAs?$AAw?$AAe?$AAd?$AAi?$AAs?$AAh?$AA?9?$AAf?$AAi?$AAn?$AAl?$AAa?$AAn?$AAd?$AA?$AA@ 00000001800229e0     LIBCMT:getqloc.obj
 0002:00007a00       ??_C@_1M@PIPDDPPI@?$AAs?$AAw?$AAi?$AAs?$AAs?$AA?$AA@ 0000000180022a00     LIBCMT:getqloc.obj
 0002:00007a0c       ??_C@_15GMFIMNFM@?$AAu?$AAs?$AA?$AA@ 0000000180022a0c     LIBCMT:getqloc.obj
 0002:00007a18       ??_C@_17HAEBFAGL@?$AAu?$AAs?$AAa?$AA?$AA@ 0000000180022a18     LIBCMT:getqloc.obj
 0002:00007a20       __rg_country               0000000180022a20     LIBCMT:getqloc.obj
 0002:00007b90       ??_C@_1BA@DPFJEPHB@?$AAa?$AAm?$AAe?$AAr?$AAi?$AAc?$AAa?$AA?$AA@ 0000000180022b90     LIBCMT:getqloc.obj
 0002:00007ba0       ??_C@_1BA@ELOGGFK@?$AAb?$AAr?$AAi?$AAt?$AAa?$AAi?$AAn?$AA?$AA@ 0000000180022ba0     LIBCMT:getqloc.obj
 0002:00007bb0       ??_C@_1M@GHBGIGDA@?$AAc?$AAh?$AAi?$AAn?$AAa?$AA?$AA@ 0000000180022bb0     LIBCMT:getqloc.obj
 0002:00007bc0       ??_C@_1M@NCHEJOPO@?$AAc?$AAz?$AAe?$AAc?$AAh?$AA?$AA@ 0000000180022bc0     LIBCMT:getqloc.obj
 0002:00007bd0       ??_C@_1BA@BKPAPBLA@?$AAe?$AAn?$AAg?$AAl?$AAa?$AAn?$AAd?$AA?$AA@ 0000000180022bd0     LIBCMT:getqloc.obj
 0002:00007be0       ??_C@_1BM@HKBCKIPC@?$AAg?$AAr?$AAe?$AAa?$AAt?$AA?5?$AAb?$AAr?$AAi?$AAt?$AAa?$AAi?$AAn?$AA?$AA@ 0000000180022be0     LIBCMT:getqloc.obj
 0002:00007c00       ??_C@_1BA@PPCHPGJB@?$AAh?$AAo?$AAl?$AAl?$AAa?$AAn?$AAd?$AA?$AA@ 0000000180022c00     LIBCMT:getqloc.obj
 0002:00007c10       ??_C@_1BE@JBMPEGDG@?$AAh?$AAo?$AAn?$AAg?$AA?9?$AAk?$AAo?$AAn?$AAg?$AA?$AA@ 0000000180022c10     LIBCMT:getqloc.obj
 0002:00007c28       ??_C@_1BI@KOELBBPJ@?$AAn?$AAe?$AAw?$AA?9?$AAz?$AAe?$AAa?$AAl?$AAa?$AAn?$AAd?$AA?$AA@ 0000000180022c28     LIBCMT:getqloc.obj
 0002:00007c40       ??_C@_15HIEBHAIO@?$AAn?$AAz?$AA?$AA@ 0000000180022c40     LIBCMT:getqloc.obj
 0002:00007c48       ??_C@_1BC@CHBCPFPI@?$AAp?$AAr?$AA?5?$AAc?$AAh?$AAi?$AAn?$AAa?$AA?$AA@ 0000000180022c48     LIBCMT:getqloc.obj
 0002:00007c60       ??_C@_1BC@JAOIIFKD@?$AAp?$AAr?$AA?9?$AAc?$AAh?$AAi?$AAn?$AAa?$AA?$AA@ 0000000180022c60     LIBCMT:getqloc.obj
 0002:00007c78       ??_C@_1BI@BEHPPHKC@?$AAp?$AAu?$AAe?$AAr?$AAt?$AAo?$AA?9?$AAr?$AAi?$AAc?$AAo?$AA?$AA@ 0000000180022c78     LIBCMT:getqloc.obj
 0002:00007c90       ??_C@_1O@PAEOFKDI@?$AAs?$AAl?$AAo?$AAv?$AAa?$AAk?$AA?$AA@ 0000000180022c90     LIBCMT:getqloc.obj
 0002:00007ca0       ??_C@_1BK@FIHMCKAM@?$AAs?$AAo?$AAu?$AAt?$AAh?$AA?5?$AAa?$AAf?$AAr?$AAi?$AAc?$AAa?$AA?$AA@ 0000000180022ca0     LIBCMT:getqloc.obj
 0002:00007cc0       ??_C@_1BI@NAEOODKB@?$AAs?$AAo?$AAu?$AAt?$AAh?$AA?5?$AAk?$AAo?$AAr?$AAe?$AAa?$AA?$AA@ 0000000180022cc0     LIBCMT:getqloc.obj
 0002:00007cd8       ??_C@_1BK@FBDGGIFF@?$AAs?$AAo?$AAu?$AAt?$AAh?$AA?9?$AAa?$AAf?$AAr?$AAi?$AAc?$AAa?$AA?$AA@ 0000000180022cd8     LIBCMT:getqloc.obj
 0002:00007cf8       ??_C@_1BI@GHLEJDPK@?$AAs?$AAo?$AAu?$AAt?$AAh?$AA?9?$AAk?$AAo?$AAr?$AAe?$AAa?$AA?$AA@ 0000000180022cf8     LIBCMT:getqloc.obj
 0002:00007d10       ??_C@_1CE@PLHLOMJF@?$AAt?$AAr?$AAi?$AAn?$AAi?$AAd?$AAa?$AAd?$AA?5?$AA?$CG?$AA?5?$AAt?$AAo?$AAb?$AAa?$AAg?$AAo?$AA?$AA@ 0000000180022d10     LIBCMT:getqloc.obj
 0002:00007d38       ??_C@_1BO@MODIMHHI@?$AAu?$AAn?$AAi?$AAt?$AAe?$AAd?$AA?9?$AAk?$AAi?$AAn?$AAg?$AAd?$AAo?$AAm?$AA?$AA@ 0000000180022d38     LIBCMT:getqloc.obj
 0002:00007d58       ??_C@_1BM@FFHJONBJ@?$AAu?$AAn?$AAi?$AAt?$AAe?$AAd?$AA?9?$AAs?$AAt?$AAa?$AAt?$AAe?$AAs?$AA?$AA@ 0000000180022d58     LIBCMT:getqloc.obj
 0002:00007d74       __rg_language_count        0000000180022d74     LIBCMT:getqloc.obj
 0002:00007d78       __rg_country_count         0000000180022d78     LIBCMT:getqloc.obj
 0002:00007d80       ??_C@_17DNCLJFIF@?$AAA?$AAC?$AAP?$AA?$AA@ 0000000180022d80     LIBCMT:getqloc.obj
 0002:00007d88       ??_C@_17CIKBIHLH@?$AAO?$AAC?$AAP?$AA?$AA@ 0000000180022d88     LIBCMT:getqloc.obj
 0002:00007d90       __rglangidNotDefault       0000000180022d90     LIBCMT:getqloc_downlevel.obj
 0002:000080c8       ??_C@_08EHJDFFNH@__based?$CI?$AA@ 00000001800230c8     LIBCMT:undname.obj
 0002:000080d8       ??_C@_07KOLFKCDI@__cdecl?$AA@ 00000001800230d8     LIBCMT:undname.obj
 0002:000080e0       ??_C@_08GHMPAG@__pascal?$AA@ 00000001800230e0     LIBCMT:undname.obj
 0002:000080f0       ??_C@_09IFJBGAPI@__stdcall?$AA@ 00000001800230f0     LIBCMT:undname.obj
 0002:00008100       ??_C@_0L@NPHFGOKO@__thiscall?$AA@ 0000000180023100     LIBCMT:undname.obj
 0002:00008110       ??_C@_0L@JMKHOMEK@__fastcall?$AA@ 0000000180023110     LIBCMT:undname.obj
 0002:00008120       ??_C@_0N@BCKKPABJ@__vectorcall?$AA@ 0000000180023120     LIBCMT:undname.obj
 0002:00008130       ??_C@_09HIJEGCPM@__clrcall?$AA@ 0000000180023130     LIBCMT:undname.obj
 0002:0000813c       ??_C@_06GHPCKEAG@__eabi?$AA@ 000000018002313c     LIBCMT:undname.obj
 0002:00008148       ??_C@_07JOMMBBKO@__ptr64?$AA@ 0000000180023148     LIBCMT:undname.obj
 0002:00008150       ??_C@_0L@PILCLIHE@__restrict?$AA@ 0000000180023150     LIBCMT:undname.obj
 0002:00008160       ??_C@_0M@GFIIJFMG@__unaligned?$AA@ 0000000180023160     LIBCMT:undname.obj
 0002:00008170       ??_C@_09DHDLOLLB@restrict?$CI?$AA@ 0000000180023170     LIBCMT:undname.obj
 0002:0000817c       ??_C@_04NIHEBCM@?5new?$AA@ 000000018002317c     LIBCMT:undname.obj
 0002:00008188       ??_C@_07FPCDHGMM@?5delete?$AA@ 0000000180023188     LIBCMT:undname.obj
 0002:00008190       ??_C@_01NEMOKFLO@?$DN?$AA@ 0000000180023190     LIBCMT:undname.obj
 0002:00008194       ??_C@_02GPIOPFAK@?$DO?$DO?$AA@ 0000000180023194     LIBCMT:undname.obj
 0002:00008198       ??_C@_02FODMEDOG@?$DM?$DM?$AA@ 0000000180023198     LIBCMT:undname.obj
 0002:0000819c       ??_C@_01DCLJPIOD@?$CB?$AA@ 000000018002319c     LIBCMT:undname.obj
 0002:000081a0       ??_C@_02EGOFBIJA@?$DN?$DN?$AA@ 00000001800231a0     LIBCMT:undname.obj
 0002:000081a4       ??_C@_02FDNJECIE@?$CB?$DN?$AA@ 00000001800231a4     LIBCMT:undname.obj
 0002:000081a8       ??_C@_02GPECMEKF@?$FL?$FN?$AA@ 00000001800231a8     LIBCMT:undname.obj
 0002:000081b0       ??_C@_08LHJFAFGD@operator?$AA@ 00000001800231b0     LIBCMT:undname.obj
 0002:000081bc       ??_C@_02HBOOOICD@?9?$DO?$AA@ 00000001800231bc     LIBCMT:undname.obj
 0002:000081c0       ??_C@_02ECNGHCIF@?$CL?$CL?$AA@ 00000001800231c0     LIBCMT:undname.obj
 0002:000081c4       ??_C@_02BAABKJLB@?9?9?$AA@ 00000001800231c4     LIBCMT:undname.obj
 0002:000081c8       ??_C@_01MIFGBAGJ@?$CL?$AA@ 00000001800231c8     LIBCMT:undname.obj
 0002:000081cc       ??_C@_01HNPIGOCE@?$CG?$AA@ 00000001800231cc     LIBCMT:undname.obj
 0002:000081d0       ??_C@_03MNHNFDLC@?9?$DO?$CK?$AA@ 00000001800231d0     LIBCMT:undname.obj
 0002:000081d4       ??_C@_01KMDKNFGN@?1?$AA@   00000001800231d4     LIBCMT:undname.obj
 0002:000081d8       ??_C@_01FGNFDNOH@?$CF?$AA@ 00000001800231d8     LIBCMT:undname.obj
 0002:000081dc       ??_C@_01MNNFJEPP@?$DM?$AA@ 00000001800231dc     LIBCMT:undname.obj
 0002:000081e0       ??_C@_02EHCHHCKH@?$DM?$DN?$AA@ 00000001800231e0     LIBCMT:undname.obj
 0002:000081e4       ??_C@_01PPODPGHN@?$DO?$AA@ 00000001800231e4     LIBCMT:undname.obj
 0002:000081e8       ??_C@_02EEKDKGMJ@?$DO?$DN?$AA@ 00000001800231e8     LIBCMT:undname.obj
 0002:000081ec       ??_C@_02HCKGKOFO@?$CI?$CJ?$AA@ 00000001800231ec     LIBCMT:undname.obj
 0002:000081f0       ??_C@_01PJKLJHI@?$HO?$AA@  00000001800231f0     LIBCMT:undname.obj
 0002:000081f4       ??_C@_01JKBOJNNK@?$FO?$AA@ 00000001800231f4     LIBCMT:undname.obj
 0002:000081f8       ??_C@_01DNKMNLPK@?$HM?$AA@ 00000001800231f8     LIBCMT:undname.obj
 0002:000081fc       ??_C@_02PPKAJPJL@?$CG?$CG?$AA@ 00000001800231fc     LIBCMT:undname.obj
 0002:00008200       ??_C@_02NONPIBCD@?$HM?$HM?$AA@ 0000000180023200     LIBCMT:undname.obj
 0002:00008204       ??_C@_02FPIMKNGF@?$CK?$DN?$AA@ 0000000180023204     LIBCMT:undname.obj
 0002:00008208       ??_C@_02FOEOMHFC@?$CL?$DN?$AA@ 0000000180023208     LIBCMT:undname.obj
 0002:0000820c       ??_C@_02FKMDLLOA@?9?$DN?$AA@ 000000018002320c     LIBCMT:undname.obj
 0002:00008210       ??_C@_02FJEHGPIO@?1?$DN?$AA@ 0000000180023210     LIBCMT:undname.obj
 0002:00008214       ??_C@_02FENAOKFI@?$CF?$DN?$AA@ 0000000180023214     LIBCMT:undname.obj
 0002:00008218       ??_C@_03IKFCCPFF@?$DO?$DO?$DN?$AA@ 0000000180023218     LIBCMT:undname.obj
 0002:0000821c       ??_C@_03CDNPDDLA@?$DM?$DM?$DN?$AA@ 000000018002321c     LIBCMT:undname.obj
 0002:00008220       ??_C@_02FGJGFEAB@?$CG?$DN?$AA@ 0000000180023220     LIBCMT:undname.obj
 0002:00008224       ??_C@_02DHLNPPGH@?$HM?$DN?$AA@ 0000000180023224     LIBCMT:undname.obj
 0002:00008228       ??_C@_02MHEGNOJ@?$FO?$DN?$AA@ 0000000180023228     LIBCMT:undname.obj
 0002:00008230       ??_C@_09IFPLHPGF@?$GAvftable?8?$AA@ 0000000180023230     LIBCMT:undname.obj
 0002:00008240       ??_C@_09BLBHBJP@?$GAvbtable?8?$AA@ 0000000180023240     LIBCMT:undname.obj
 0002:00008250       ??_C@_07FEEIOKP@?$GAvcall?8?$AA@ 0000000180023250     LIBCMT:undname.obj
 0002:00008258       ??_C@_08LLFFHHDJ@?$GAtypeof?8?$AA@ 0000000180023258     LIBCMT:undname.obj
 0002:00008268       ??_C@_0BF@KDPPACIK@?$GAlocal?5static?5guard?8?$AA@ 0000000180023268     LIBCMT:undname.obj
 0002:00008280       ??_C@_08OBABFOLI@?$GAstring?8?$AA@ 0000000180023280     LIBCMT:undname.obj
 0002:00008290       ??_C@_0BD@JDLKDPAB@?$GAvbase?5destructor?8?$AA@ 0000000180023290     LIBCMT:undname.obj
 0002:000082a8       ??_C@_0BN@DEGPLNFK@?$GAvector?5deleting?5destructor?8?$AA@ 00000001800232a8     LIBCMT:undname.obj
 0002:000082c8       ??_C@_0BO@OBMKPJIG@?$GAdefault?5constructor?5closure?8?$AA@ 00000001800232c8     LIBCMT:undname.obj
 0002:000082e8       ??_C@_0BN@IMDCHIKM@?$GAscalar?5deleting?5destructor?8?$AA@ 00000001800232e8     LIBCMT:undname.obj
 0002:00008308       ??_C@_0BO@PFGOCPJJ@?$GAvector?5constructor?5iterator?8?$AA@ 0000000180023308     LIBCMT:undname.obj
 0002:00008328       ??_C@_0BN@LFPFMEDL@?$GAvector?5destructor?5iterator?8?$AA@ 0000000180023328     LIBCMT:undname.obj
 0002:00008348       ??_C@_0CE@IKBNEHA@?$GAvector?5vbase?5constructor?5iterat@ 0000000180023348     LIBCMT:undname.obj
 0002:00008370       ??_C@_0BL@NILFHHPC@?$GAvirtual?5displacement?5map?8?$AA@ 0000000180023370     LIBCMT:undname.obj
 0002:00008390       ??_C@_0CB@JONCMFFK@?$GAeh?5vector?5constructor?5iterator?8@ 0000000180023390     LIBCMT:undname.obj
 0002:000083b8       ??_C@_0CA@GCEOPDGL@?$GAeh?5vector?5destructor?5iterator?8?$AA@ 00000001800233b8     LIBCMT:undname.obj
 0002:000083d8       ??_C@_0CH@OOJPLCPH@?$GAeh?5vector?5vbase?5constructor?5ite@ 00000001800233d8     LIBCMT:undname.obj
 0002:00008400       ??_C@_0BL@LLKPOHJI@?$GAcopy?5constructor?5closure?8?$AA@ 0000000180023400     LIBCMT:undname.obj
 0002:00008420       ??_C@_0BA@KBCDOMBN@?$GAudt?5returning?8?$AA@ 0000000180023420     LIBCMT:undname.obj
 0002:00008430       ??_C@_03KLGMFNMG@?$GAEH?$AA@ 0000000180023430     LIBCMT:undname.obj
 0002:00008434       ??_C@_05KHLCHHI@?$GARTTI?$AA@ 0000000180023434     LIBCMT:undname.obj
 0002:00008440       ??_C@_0BA@KKLDJDLB@?$GAlocal?5vftable?8?$AA@ 0000000180023440     LIBCMT:undname.obj
 0002:00008450       ??_C@_0CE@IIHCMGGL@?$GAlocal?5vftable?5constructor?5closu@ 0000000180023450     LIBCMT:undname.obj
 0002:00008474       ??_C@_06FHBGPFGH@?5new?$FL?$FN?$AA@ 0000000180023474     LIBCMT:undname.obj
 0002:00008480       ??_C@_09LBNFPBCA@?5delete?$FL?$FN?$AA@ 0000000180023480     LIBCMT:undname.obj
 0002:00008490       ??_C@_0P@HJKNJFNN@?$GAomni?5callsig?8?$AA@ 0000000180023490     LIBCMT:undname.obj
 0002:000084a0       ??_C@_0BL@CNOONJFP@?$GAplacement?5delete?5closure?8?$AA@ 00000001800234a0     LIBCMT:undname.obj
 0002:000084c0       ??_C@_0BN@CKNJLHMB@?$GAplacement?5delete?$FL?$FN?5closure?8?$AA@ 00000001800234c0     LIBCMT:undname.obj
 0002:000084e0       ??_C@_0CG@CFDHKGGD@?$GAmanaged?5vector?5constructor?5iter@ 00000001800234e0     LIBCMT:undname.obj
 0002:00008508       ??_C@_0CF@IMGKMJNO@?$GAmanaged?5vector?5destructor?5itera@ 0000000180023508     LIBCMT:undname.obj
 0002:00008530       ??_C@_0CG@HLDDJMAG@?$GAeh?5vector?5copy?5constructor?5iter@ 0000000180023530     LIBCMT:undname.obj
 0002:00008558       ??_C@_0CM@FCBBDIGB@?$GAeh?5vector?5vbase?5copy?5constructo@ 0000000180023558     LIBCMT:undname.obj
 0002:00008588       ??_C@_0BL@CLIPGLGB@?$GAdynamic?5initializer?5for?5?8?$AA@ 0000000180023588     LIBCMT:undname.obj
 0002:000085a8       ??_C@_0CB@PDBIFEP@?$GAdynamic?5atexit?5destructor?5for?5?8@ 00000001800235a8     LIBCMT:undname.obj
 0002:000085d0       ??_C@_0CD@CGAJBKEJ@?$GAvector?5copy?5constructor?5iterato@ 00000001800235d0     LIBCMT:undname.obj
 0002:000085f8       ??_C@_0CJ@GJELGAMM@?$GAvector?5vbase?5copy?5constructor?5i@ 00000001800235f8     LIBCMT:undname.obj
 0002:00008628       ??_C@_0CL@FGIJHLCE@?$GAmanaged?5vector?5copy?5constructor@ 0000000180023628     LIBCMT:undname.obj
 0002:00008658       ??_C@_0BM@PMGGMLDN@?$GAlocal?5static?5thread?5guard?8?$AA@ 0000000180023658     LIBCMT:undname.obj
 0002:00008678       ??_C@_0BC@DAFEJGAK@?5Type?5Descriptor?8?$AA@ 0000000180023678     LIBCMT:undname.obj
 0002:00008690       ??_C@_0BM@LDKODKLH@?5Base?5Class?5Descriptor?5at?5?$CI?$AA@ 0000000180023690     LIBCMT:undname.obj
 0002:000086b0       ??_C@_0BD@LGICGFMM@?5Base?5Class?5Array?8?$AA@ 00000001800236b0     LIBCMT:undname.obj
 0002:000086c8       ??_C@_0BN@MECKDCOJ@?5Class?5Hierarchy?5Descriptor?8?$AA@ 00000001800236c8     LIBCMT:undname.obj
 0002:000086e8       ??_C@_0BK@CFCOFLF@?5Complete?5Object?5Locator?8?$AA@ 00000001800236e8     LIBCMT:undname.obj
 0002:00008708       ??_C@_1BG@GOEBHBDC@?$AAU?$AAS?$AAE?$AAR?$AA3?$AA2?$AA?4?$AAD?$AAL?$AAL?$AA?$AA@ 0000000180023708     LIBCMT:crtmboxw.obj
 0002:00008720       ??_C@_0M@DLDCCGNP@MessageBoxW?$AA@ 0000000180023720     LIBCMT:crtmboxw.obj
 0002:00008730       ??_C@_0BA@HNOPNCHB@GetActiveWindow?$AA@ 0000000180023730     LIBCMT:crtmboxw.obj
 0002:00008740       ??_C@_0BD@HHGDFDBJ@GetLastActivePopup?$AA@ 0000000180023740     LIBCMT:crtmboxw.obj
 0002:00008758       ??_C@_0BK@DEKFELLI@GetUserObjectInformationW?$AA@ 0000000180023758     LIBCMT:crtmboxw.obj
 0002:00008778       ??_C@_0BI@DFKBFLJE@GetProcessWindowStation?$AA@ 0000000180023778     LIBCMT:crtmboxw.obj
 0002:00008790       ??_C@_06PGGFOGJG@1?$CDSNAN?$AA@ 0000000180023790     LIBCMT:x10fout.obj
 0002:00008798       ??_C@_05PHHOCPM@1?$CDIND?$AA@ 0000000180023798     LIBCMT:x10fout.obj
 0002:000087a0       ??_C@_05DNEBIAHO@1?$CDINF?$AA@ 00000001800237a0     LIBCMT:x10fout.obj
 0002:000087a8       ??_C@_06IMKFLFPG@1?$CDQNAN?$AA@ 00000001800237a8     LIBCMT:x10fout.obj
 0002:000087b0       ??_C@_1BA@BALFACEM@?$AAC?$AAO?$AAN?$AAO?$AAU?$AAT?$AA$?$AA?$AA@ 00000001800237b0     LIBCMT:initcon.obj
 0002:000087c0       ??_C@_0BC@BDKFLDHL@unknown?5exception?$AA@ 00000001800237c0     hanaRouting.obj
 0002:000087d8       ??_C@_0BA@ELKIONDK@bad?5locale?5name?$AA@ 00000001800237d8     hanaRouting.obj
 0002:000087e8       ??_C@_05LAPONLG@false?$AA@ 00000001800237e8     hanaRouting.obj
 0002:000087f0       ??_C@_04LOAJBDKD@true?$AA@ 00000001800237f0     hanaRouting.obj
 0002:000087f5       ??_C@_00CNPNBAHC@?$AA@     00000001800237f5     hanaRouting.obj
 0002:000087f8       ??_C@_02LMMGGCAJ@?3?5?$AA@ 00000001800237f8     hanaRouting.obj
 0002:00008800       ??_C@_0BF@PHHKMMFD@ios_base?3?3badbit?5set?$AA@ 0000000180023800     hanaRouting.obj
 0002:00008818       ??_C@_0BG@FMKFHCIL@ios_base?3?3failbit?5set?$AA@ 0000000180023818     hanaRouting.obj
 0002:00008830       ??_C@_0BF@OOHOMBOF@ios_base?3?3eofbit?5set?$AA@ 0000000180023830     hanaRouting.obj
 0002:00008848       ??_C@_01IHBHIGKO@?0?$AA@   0000000180023848     hanaRouting.obj
 0002:00008850       ??_C@_07NKPCCAAP@getJson?$AA@ 0000000180023850     hanaRouting.obj
 0002:00008858       ??_C@_0BC@NGIKCBMA@?4?4?2hanaRouting?4cc?$AA@ 0000000180023858     hanaRouting.obj
 0002:0000886c       ??_C@_05ONJGPJEO@addon?$AA@ 000000018002386c     hanaRouting.obj
 0002:00008874       ??_C@_02BBAHNLBA@?$CFp?$AA@ 0000000180023874     hanaRouting.obj
 0002:00008878       ??_C@_02MDKMJEGG@eE?$AA@   0000000180023878     hanaRouting.obj
 0002:0000887c       ??_C@_02OOPEBDOJ@pP?$AA@   000000018002387c     hanaRouting.obj
 0002:00008880       ??_C@_0BA@JFNIOLAK@string?5too?5long?$AA@ 0000000180023880     hanaRouting.obj
 0002:00008890       ??_C@_0BI@CFPLBAOH@invalid?5string?5position?$AA@ 0000000180023890     hanaRouting.obj
 0002:000088a8       ??_7?$basic_streambuf@DU?$char_traits@D@std@@@std@@6B@ 00000001800238a8     hanaRouting.obj
 0002:00008920       ??_7?$basic_ostringstream@DU?$char_traits@D@std@@V?$allocator@D@2@@std@@6B@ 0000000180023920     hanaRouting.obj
 0002:00008928       ??_7?$basic_stringbuf@DU?$char_traits@D@std@@V?$allocator@D@2@@std@@6B@ 0000000180023928     hanaRouting.obj
 0002:000089a0       ??_7_System_error@std@@6B@ 00000001800239a0     hanaRouting.obj
 0002:000089a0       ??_7failure@ios_base@std@@6B@ 00000001800239a0     hanaRouting.obj
 0002:000089b8       ??_7exception@stdext@@6B@  00000001800239b8     hanaRouting.obj
 0002:000089d0       ??_8?$basic_ostringstream@DU?$char_traits@D@std@@V?$allocator@D@2@@std@@7B@ 00000001800239d0     hanaRouting.obj
 0002:000089d8       ??_7ios_base@std@@6B@      00000001800239d8     hanaRouting.obj
 0002:000089e0       ??_7?$basic_ostream@DU?$char_traits@D@std@@@std@@6B@ 00000001800239e0     hanaRouting.obj
 0002:000089e8       ??_C@_08HCOMDCCD@iojs?4exe?$AA@ 00000001800239e8     win_delay_load_hook.obj
 0002:000089f8       ??_C@_08JDDNMFDB@node?4exe?$AA@ 00000001800239f8     win_delay_load_hook.obj
 0002:00008a08       __real@38aa95a5b7f87a0f    0000000180023a08     hanaRouting.obj
 0002:00008a10       __real@3fe0000000000000    0000000180023a10     hanaRouting.obj
 0002:00008a18       __real@4202a05f20000000    0000000180023a18     hanaRouting.obj
 0002:00008a20       __real@4733426172c74d82    0000000180023a20     hanaRouting.obj
 0002:00008a30       __xmm@80000000000000008000000000000000 0000000180023a30     hanaRouting.obj
 0002:00008a40       _load_config_used          0000000180023a40     LIBCMT:loadcfg.obj
 0002:00008b28       ??_R4_Facet_base@std@@6B@  0000000180023b28     libcpmt:locale0.obj
 0002:00008b50       ??_R3_Facet_base@std@@8    0000000180023b50     libcpmt:locale0.obj
 0002:00008b68       ??_R2_Facet_base@std@@8    0000000180023b68     libcpmt:locale0.obj
 0002:00008b78       ??_R1A@?0A@EA@_Facet_base@std@@8 0000000180023b78     libcpmt:locale0.obj
 0002:00008ba0       ??_R4_Locimp@locale@std@@6B@ 0000000180023ba0     libcpmt:locale0.obj
 0002:00008bc8       ??_R3_Locimp@locale@std@@8 0000000180023bc8     libcpmt:locale0.obj
 0002:00008be0       ??_R2_Locimp@locale@std@@8 0000000180023be0     libcpmt:locale0.obj
 0002:00008c00       ??_R1A@?0A@EA@_Locimp@locale@std@@8 0000000180023c00     libcpmt:locale0.obj
 0002:00008c28       ??_R1A@?0A@EA@facet@locale@std@@8 0000000180023c28     libcpmt:locale0.obj
 0002:00008c50       ??_R3facet@locale@std@@8   0000000180023c50     libcpmt:locale0.obj
 0002:00008c68       ??_R2facet@locale@std@@8   0000000180023c68     libcpmt:locale0.obj
 0002:00008c80       ??_R1A@?0A@EA@exception@std@@8 0000000180023c80     libcpmt:xthrow.obj
 0002:00008ca8       ??_R3exception@std@@8      0000000180023ca8     libcpmt:xthrow.obj
 0002:00008cc0       ??_R2exception@std@@8      0000000180023cc0     libcpmt:xthrow.obj
 0002:00008cd0       ??_R4bad_alloc@std@@6B@    0000000180023cd0     libcpmt:xthrow.obj
 0002:00008cf8       ??_R3bad_alloc@std@@8      0000000180023cf8     libcpmt:xthrow.obj
 0002:00008d10       ??_R2bad_alloc@std@@8      0000000180023d10     libcpmt:xthrow.obj
 0002:00008d28       ??_R1A@?0A@EA@bad_alloc@std@@8 0000000180023d28     libcpmt:xthrow.obj
 0002:00008d50       ??_R4logic_error@std@@6B@  0000000180023d50     libcpmt:xthrow.obj
 0002:00008d78       ??_R3logic_error@std@@8    0000000180023d78     libcpmt:xthrow.obj
 0002:00008d90       ??_R2logic_error@std@@8    0000000180023d90     libcpmt:xthrow.obj
 0002:00008da8       ??_R1A@?0A@EA@logic_error@std@@8 0000000180023da8     libcpmt:xthrow.obj
 0002:00008dd0       ??_R4length_error@std@@6B@ 0000000180023dd0     libcpmt:xthrow.obj
 0002:00008df8       ??_R3length_error@std@@8   0000000180023df8     libcpmt:xthrow.obj
 0002:00008e10       ??_R2length_error@std@@8   0000000180023e10     libcpmt:xthrow.obj
 0002:00008e30       ??_R1A@?0A@EA@length_error@std@@8 0000000180023e30     libcpmt:xthrow.obj
 0002:00008e58       ??_R4out_of_range@std@@6B@ 0000000180023e58     libcpmt:xthrow.obj
 0002:00008e80       ??_R3out_of_range@std@@8   0000000180023e80     libcpmt:xthrow.obj
 0002:00008e98       ??_R2out_of_range@std@@8   0000000180023e98     libcpmt:xthrow.obj
 0002:00008eb8       ??_R1A@?0A@EA@out_of_range@std@@8 0000000180023eb8     libcpmt:xthrow.obj
 0002:00008ee0       ??_R4runtime_error@std@@6B@ 0000000180023ee0     libcpmt:xthrow.obj
 0002:00008f08       ??_R3runtime_error@std@@8  0000000180023f08     libcpmt:xthrow.obj
 0002:00008f20       ??_R2runtime_error@std@@8  0000000180023f20     libcpmt:xthrow.obj
 0002:00008f38       ??_R1A@?0A@EA@runtime_error@std@@8 0000000180023f38     libcpmt:xthrow.obj
 0002:00008f60       ??_R3ctype_base@std@@8     0000000180023f60     libcpmt:locale.obj
 0002:00008f78       ??_R2ctype_base@std@@8     0000000180023f78     libcpmt:locale.obj
 0002:00008f98       ??_R1A@?0A@EA@ctype_base@std@@8 0000000180023f98     libcpmt:locale.obj
 0002:00008fc0       ??_R4?$ctype@D@std@@6B@    0000000180023fc0     libcpmt:locale.obj
 0002:00008fe8       ??_R3?$ctype@D@std@@8      0000000180023fe8     libcpmt:locale.obj
 0002:00009000       ??_R2?$ctype@D@std@@8      0000000180024000     libcpmt:locale.obj
 0002:00009028       ??_R1A@?0A@EA@?$ctype@D@std@@8 0000000180024028     libcpmt:locale.obj
 0002:00009050       ??_R4?$num_put@DV?$ostreambuf_iterator@DU?$char_traits@D@std@@@std@@@std@@6B@ 0000000180024050     libcpmt:locale.obj
 0002:00009078       ??_R3?$num_put@DV?$ostreambuf_iterator@DU?$char_traits@D@std@@@std@@@std@@8 0000000180024078     libcpmt:locale.obj
 0002:00009090       ??_R2?$num_put@DV?$ostreambuf_iterator@DU?$char_traits@D@std@@@std@@@std@@8 0000000180024090     libcpmt:locale.obj
 0002:000090b0       ??_R1A@?0A@EA@?$num_put@DV?$ostreambuf_iterator@DU?$char_traits@D@std@@@std@@@std@@8 00000001800240b0     libcpmt:locale.obj
 0002:000090d8       ??_R4?$numpunct@D@std@@6B@ 00000001800240d8     libcpmt:locale.obj
 0002:00009100       ??_R3?$numpunct@D@std@@8   0000000180024100     libcpmt:locale.obj
 0002:00009118       ??_R2?$numpunct@D@std@@8   0000000180024118     libcpmt:locale.obj
 0002:00009138       ??_R1A@?0A@EA@?$numpunct@D@std@@8 0000000180024138     libcpmt:locale.obj
 0002:00009160       ??_R4type_info@@6B@        0000000180024160     LIBCMT:typinfo.obj
 0002:00009188       ??_R3type_info@@8          0000000180024188     LIBCMT:typinfo.obj
 0002:000091a0       ??_R2type_info@@8          00000001800241a0     LIBCMT:typinfo.obj
 0002:000091b0       ??_R1A@?0A@EA@type_info@@8 00000001800241b0     LIBCMT:typinfo.obj
 0002:000091d8       ??_R4exception@std@@6B@    00000001800241d8     LIBCMT:stdexcpt.obj
 0002:00009200       ??_R4bad_exception@std@@6B@ 0000000180024200     LIBCMT:frame.obj
 0002:00009228       ??_R3bad_exception@std@@8  0000000180024228     LIBCMT:frame.obj
 0002:00009240       ??_R2bad_exception@std@@8  0000000180024240     LIBCMT:frame.obj
 0002:00009258       ??_R1A@?0A@EA@bad_exception@std@@8 0000000180024258     LIBCMT:frame.obj
 0002:00009280       __rtc_iaa                  0000000180024280     LIBCMT:initsect.obj
 0002:00009288       __rtc_izz                  0000000180024288     LIBCMT:initsect.obj
 0002:00009290       __rtc_taa                  0000000180024290     LIBCMT:initsect.obj
 0002:00009298       __rtc_tzz                  0000000180024298     LIBCMT:initsect.obj
 0002:0000a7f0       _TI2?AVbad_alloc@std@@     00000001800257f0     libcpmt:xthrow.obj
 0002:0000a810       _CTA2?AVbad_alloc@std@@    0000000180025810     libcpmt:xthrow.obj
 0002:0000a828       _CT??_R0?AVbad_alloc@std@@@8??0bad_alloc@std@@QEAA@AEBV01@@Z24 0000000180025828     libcpmt:xthrow.obj
 0002:0000a850       _CT??_R0?AVexception@std@@@8??0exception@std@@QEAA@AEBV01@@Z24 0000000180025850     libcpmt:xthrow.obj
 0002:0000a878       _CT??_R0?AVlogic_error@std@@@8??0logic_error@std@@QEAA@AEBV01@@Z24 0000000180025878     libcpmt:xthrow.obj
 0002:0000a8a0       _TI3?AVlength_error@std@@  00000001800258a0     libcpmt:xthrow.obj
 0002:0000a8c0       _CTA3?AVlength_error@std@@ 00000001800258c0     libcpmt:xthrow.obj
 0002:0000a8e0       _CT??_R0?AVlength_error@std@@@8??0length_error@std@@QEAA@AEBV01@@Z24 00000001800258e0     libcpmt:xthrow.obj
 0002:0000a908       _TI3?AVout_of_range@std@@  0000000180025908     libcpmt:xthrow.obj
 0002:0000a928       _CTA3?AVout_of_range@std@@ 0000000180025928     libcpmt:xthrow.obj
 0002:0000a948       _CT??_R0?AVout_of_range@std@@@8??0out_of_range@std@@QEAA@AEBV01@@Z24 0000000180025948     libcpmt:xthrow.obj
 0002:0000a970       _TI2?AVbad_exception@std@@ 0000000180025970     LIBCMT:frame.obj
 0002:0000a990       _CTA2?AVbad_exception@std@@ 0000000180025990     LIBCMT:frame.obj
 0002:0000a9a8       _CT??_R0?AVbad_exception@std@@@8??0bad_exception@std@@QEAA@AEBV01@@Z24 00000001800259a8     LIBCMT:frame.obj
 0002:0000a9cc       __DELAY_IMPORT_DESCRIPTOR_node_exe 00000001800259cc     node:node.exe
 0002:0000a9ec       __NULL_DELAY_IMPORT_DESCRIPTOR 00000001800259ec     node:node.exe
 0002:0000aa60       \177node_NULL_THUNK_DATA_DLN 0000000180025a60     node:node.exe
 0002:0000ace8       \177node_NULL_THUNK_DATA_DLB 0000000180025ce8     node:node.exe
 0002:0000ad90       __IMPORT_DESCRIPTOR_KERNEL32 0000000180025d90     kernel32:KERNEL32.dll
 0002:0000ada4       __NULL_IMPORT_DESCRIPTOR   0000000180025da4     kernel32:KERNEL32.dll
 0003:00000000       ?_Sync@ios_base@std@@0_NA  0000000180027000     libcpmt:ios.obj
 0003:00000020       ?_PJP_CPP_Copyright@@3PADA 0000000180027020     libcpmt:iosptrs.obj
 0003:00000080       _FDenorm                   0000000180027080     libcpmt:xfvalues.obj
 0003:00000090       _FInf                      0000000180027090     libcpmt:xfvalues.obj
 0003:000000a0       _FNan                      00000001800270a0     libcpmt:xfvalues.obj
 0003:000000b0       _FSnan                     00000001800270b0     libcpmt:xfvalues.obj
 0003:000000c0       _FEps                      00000001800270c0     libcpmt:xfvalues.obj
 0003:000000d0       _FRteps                    00000001800270d0     libcpmt:xfvalues.obj
 0003:000000e0       _FXbig                     00000001800270e0     libcpmt:xfvalues.obj
 0003:000000e8       _Denorm                    00000001800270e8     libcpmt:xvalues.obj
 0003:000000f8       _Hugeval                   00000001800270f8     libcpmt:xvalues.obj
 0003:00000108       _Inf                       0000000180027108     libcpmt:xvalues.obj
 0003:00000118       _Nan                       0000000180027118     libcpmt:xvalues.obj
 0003:00000128       _Snan                      0000000180027128     libcpmt:xvalues.obj
 0003:00000138       _Eps                       0000000180027138     libcpmt:xvalues.obj
 0003:00000148       _Rteps                     0000000180027148     libcpmt:xvalues.obj
 0003:00000158       _Xbig                      0000000180027158     libcpmt:xvalues.obj
 0003:00000160       _LDenorm                   0000000180027160     libcpmt:xlvalues.obj
 0003:00000170       _LInf                      0000000180027170     libcpmt:xlvalues.obj
 0003:00000180       _LNan                      0000000180027180     libcpmt:xlvalues.obj
 0003:00000190       _LSnan                     0000000180027190     libcpmt:xlvalues.obj
 0003:000001a0       _LEps                      00000001800271a0     libcpmt:xlvalues.obj
 0003:000001b0       _LRteps                    00000001800271b0     libcpmt:xlvalues.obj
 0003:000001c0       _LXbig                     00000001800271c0     libcpmt:xlvalues.obj
 0003:000001d0       __abort_behavior           00000001800271d0     LIBCMT:abort.obj
 0003:000001e0       __lconv_c                  00000001800271e0     LIBCMT:lconv.obj
 0003:00000278       __lconv_static_decimal     0000000180027278     LIBCMT:lconv.obj
 0003:0000027c       __lconv_static_W_decimal   000000018002727c     LIBCMT:lconv.obj
 0003:00000280       __lconv                    0000000180027280     LIBCMT:lconv.obj
 0003:00000400       _fltused                   0000000180027400     LIBCMT:fpinit.obj
 0003:00000404       _ldused                    0000000180027404     LIBCMT:fpinit.obj
 0003:00000650       _pctype                    0000000180027650     LIBCMT:ctype.obj
 0003:00000658       _pwctype                   0000000180027658     LIBCMT:ctype.obj
 0003:00000660       __security_cookie          0000000180027660     LIBCMT:gs_cookie.obj
 0003:00000668       __security_cookie_complement 0000000180027668     LIBCMT:gs_cookie.obj
 0003:00000680       __nullstring               0000000180027680     LIBCMT:output.obj
 0003:00000688       __wnullstring              0000000180027688     LIBCMT:output.obj
 0003:00000690       __isa_available            0000000180027690     LIBCMT:cpu_disp.obj
 0003:00000694       __isa_enabled              0000000180027694     LIBCMT:cpu_disp.obj
 0003:00000698       __flsindex                 0000000180027698     LIBCMT:tidtable.obj
 0003:0000069c       __mb_cur_max               000000018002769c     LIBCMT:nlsdata.obj
 0003:000006a0       __wclocalestr              00000001800276a0     LIBCMT:nlsdata.obj
 0003:000006b0       __lc_time_c                00000001800276b0     LIBCMT:nlsdata.obj
 0003:00000970       __ptlocinfo                0000000180027970     LIBCMT:nlsdata.obj
 0003:00000980       __initiallocinfo           0000000180027980     LIBCMT:nlsdata.obj
 0003:00000ad8       __globallocalestatus       0000000180027ad8     LIBCMT:glstatus.obj
 0003:00000ae0       _mbctype                   0000000180027ae0     LIBCMT:mbctype.obj
 0003:00000bf0       _mbcasemap                 0000000180027bf0     LIBCMT:mbctype.obj
 0003:00000cf0       __initialmbcinfo           0000000180027cf0     LIBCMT:mbctype.obj
 0003:00001010       __ptmbcinfo                0000000180028010     LIBCMT:mbctype.obj
 0003:00001020       __badioinfo                0000000180028020     LIBCMT:ioinit.obj
 0003:00001080       _cfltcvt_tab               0000000180028080     LIBCMT:cmiscdat.obj
 0003:000010d0       _d_inf                     00000001800280d0     LIBCMT:util.obj
 0003:000010d8       _d_ind                     00000001800280d8     LIBCMT:util.obj
 0003:000010e0       _d_max                     00000001800280e0     LIBCMT:util.obj
 0003:000010e8       _d_min                     00000001800280e8     LIBCMT:util.obj
 0003:000010f0       _d_mzero                   00000001800280f0     LIBCMT:util.obj
 0003:000012f0       _timezone                  00000001800282f0     LIBCMT:timeset.obj
 0003:000012f4       _daylight                  00000001800282f4     LIBCMT:timeset.obj
 0003:000012f8       _dstbias                   00000001800282f8     LIBCMT:timeset.obj
 0003:00001380       _tzname                    0000000180028380     LIBCMT:timeset.obj
 0003:00001390       _iob                       0000000180028390     LIBCMT:_file.obj
 0003:00001750       _matherr_flag              0000000180028750     LIBCMT:matherr.obj
 0003:00001760       _days                      0000000180028760     LIBCMT:days.obj
 0003:00001798       _lpdays                    0000000180028798     LIBCMT:days.obj
 0003:00001800       _confh                     0000000180028800     LIBCMT:initcon.obj
 0003:00001810       _pow10pos                  0000000180028810     LIBCMT:constpow.obj
 0003:00001970       _pow10neg                  0000000180028970     LIBCMT:constpow.obj
 0003:00001ad0       _HUGE                      0000000180028ad0     LIBCMT:huge.obj
 0003:00001b20       __pfnDliNotifyHook2        0000000180028b20     win_delay_load_hook.obj
 0003:00001b30       ??_R0?AV_Facet_base@std@@@8 0000000180028b30     libcpmt:locale0.obj
 0003:00001b58       ??_R0?AV_Locimp@locale@std@@@8 0000000180028b58     libcpmt:locale0.obj
 0003:00001b88       ??_R0?AVfacet@locale@std@@@8 0000000180028b88     libcpmt:locale0.obj
 0003:00001bb0       ??_R0?AVbad_alloc@std@@@8  0000000180028bb0     libcpmt:xthrow.obj
 0003:00001bd8       ??_R0?AVexception@std@@@8  0000000180028bd8     libcpmt:xthrow.obj
 0003:00001c00       ??_R0?AVlogic_error@std@@@8 0000000180028c00     libcpmt:xthrow.obj
 0003:00001c28       ??_R0?AVlength_error@std@@@8 0000000180028c28     libcpmt:xthrow.obj
 0003:00001c50       ??_R0?AVout_of_range@std@@@8 0000000180028c50     libcpmt:xthrow.obj
 0003:00001c78       ??_R0?AVruntime_error@std@@@8 0000000180028c78     libcpmt:xthrow.obj
 0003:00001ca0       ??_R0?AUctype_base@std@@@8 0000000180028ca0     libcpmt:locale.obj
 0003:00001cc8       ??_R0?AV?$ctype@D@std@@@8  0000000180028cc8     libcpmt:locale.obj
 0003:00001cf0       ??_R0?AV?$num_put@DV?$ostreambuf_iterator@DU?$char_traits@D@std@@@std@@@std@@@8 0000000180028cf0     libcpmt:locale.obj
 0003:00001d50       ??_R0?AV?$numpunct@D@std@@@8 0000000180028d50     libcpmt:locale.obj
 0003:00001d78       ??_R0?AVtype_info@@@8      0000000180028d78     LIBCMT:typinfo.obj
 0003:00001d98       ??_R0?AVbad_exception@std@@@8 0000000180028d98     LIBCMT:frame.obj
 0003:00001dc0       __imp_node_module_register 0000000180028dc0     node:node.exe
 0003:00001dc8       __imp_?NumberValue@Value@v8@@QEBANXZ 0000000180028dc8     node:node.exe
 0003:00001dd0       __imp_?GetFunction@FunctionTemplate@v8@@QEAA?AV?$Local@VFunction@v8@@@2@XZ 0000000180028dd0     node:node.exe
 0003:00001dd8       __imp_?New@FunctionTemplate@v8@@SA?AV?$Local@VFunctionTemplate@v8@@@2@PEAVIsolate@2@P6AXAEBV?$FunctionCallbackInfo@VValue@v8@@@2@@ZV?$Local@VValue@v8@@@2@V?$Local@VSignature@v8@@@2@H@Z 0000000180028dd8     node:node.exe
 0003:00001de0       __imp_?NewFromUtf8@String@v8@@SA?AV?$Local@VString@v8@@@2@PEAVIsolate@2@PEBDW4NewStringType@12@H@Z 0000000180028de0     node:node.exe
 0003:00001de8       __imp_??1HandleScope@v8@@QEAA@XZ 0000000180028de8     node:node.exe
 0003:00001df0       __imp_??0HandleScope@v8@@QEAA@PEAVIsolate@1@@Z 0000000180028df0     node:node.exe
 0003:00001df8       __imp_?Set@Object@v8@@QEAA_NV?$Local@VValue@v8@@@2@0@Z 0000000180028df8     node:node.exe
 0003:00001e00       __imp_?SetName@Function@v8@@QEAAXV?$Local@VString@v8@@@2@@Z 0000000180028e00     node:node.exe
 0003:00001e08       __imp_?GetCurrent@Isolate@v8@@SAPEAV12@XZ 0000000180028e08     node:node.exe
 0003:00001e10       \177node_NULL_THUNK_DATA_DLA 0000000180028e10     node:node.exe
 0003:00001e20       __hmod__node_exe           0000000180028e20     node:node.exe
 0003:00001e30       ?_Id_cnt@id@locale@std@@0HA 0000000180028e30     libcpmt:locale0.obj
 0003:00001e40       ?_Clocptr@_Locimp@locale@std@@0PEAV123@EA 0000000180028e40     libcpmt:locale0.obj
 0003:00001e50       ?id@?$codecvt@GDH@std@@2V0locale@2@A 0000000180028e50     libcpmt:locale0.obj
 0003:00001e58       ?id@?$ctype@D@std@@2V0locale@2@A 0000000180028e58     libcpmt:locale0.obj
 0003:00001e60       ?id@?$codecvt@_WDH@std@@2V0locale@2@A 0000000180028e60     libcpmt:locale0.obj
 0003:00001e78       ?id@?$ctype@G@std@@2V0locale@2@A 0000000180028e78     libcpmt:locale0.obj
 0003:00001e80       ?id@?$ctype@_W@std@@2V0locale@2@A 0000000180028e80     libcpmt:locale0.obj
 0003:00001e90       ?_Index@ios_base@std@@0HA  0000000180028e90     libcpmt:ios.obj
 0003:00001f00       ?_Raise_handler@std@@3P6AXAEBVexception@stdext@@@ZEA 0000000180028f00     libcpmt:raisehan.obj
 0003:00001fc0       ?_Ptr_cin@std@@3PEAV?$basic_istream@DU?$char_traits@D@std@@@1@EA 0000000180028fc0     libcpmt:iosptrs.obj
 0003:00001fc8       ?_Ptr_cout@std@@3PEAV?$basic_ostream@DU?$char_traits@D@std@@@1@EA 0000000180028fc8     libcpmt:iosptrs.obj
 0003:00001fd0       ?_Ptr_cerr@std@@3PEAV?$basic_ostream@DU?$char_traits@D@std@@@1@EA 0000000180028fd0     libcpmt:iosptrs.obj
 0003:00001fd8       ?_Ptr_clog@std@@3PEAV?$basic_ostream@DU?$char_traits@D@std@@@1@EA 0000000180028fd8     libcpmt:iosptrs.obj
 0003:00001fe0       ?_Ptr_wcin@std@@3PEAV?$basic_istream@_WU?$char_traits@_W@std@@@1@EA 0000000180028fe0     libcpmt:iosptrs.obj
 0003:00001fe8       ?_Ptr_wcout@std@@3PEAV?$basic_ostream@_WU?$char_traits@_W@std@@@1@EA 0000000180028fe8     libcpmt:iosptrs.obj
 0003:00001ff0       ?_Ptr_wcerr@std@@3PEAV?$basic_ostream@_WU?$char_traits@_W@std@@@1@EA 0000000180028ff0     libcpmt:iosptrs.obj
 0003:00001ff8       ?_Ptr_wclog@std@@3PEAV?$basic_ostream@_WU?$char_traits@_W@std@@@1@EA 0000000180028ff8     libcpmt:iosptrs.obj
 0003:00002058       ?id@?$num_get@DV?$istreambuf_iterator@DU?$char_traits@D@std@@@std@@@std@@2V0locale@2@A 0000000180029058     libcpmt:locale.obj
 0003:00002060       ?id@?$codecvt@DDH@std@@2V0locale@2@A 0000000180029060     libcpmt:locale.obj
 0003:00002070       ?id@?$time_put@_WV?$ostreambuf_iterator@_WU?$char_traits@_W@std@@@std@@@std@@2V0locale@2@A 0000000180029070     libcpmt:wlocale.obj
 0003:00002078       ?id@?$num_get@_WV?$istreambuf_iterator@_WU?$char_traits@_W@std@@@std@@@std@@2V0locale@2@A 0000000180029078     libcpmt:wlocale.obj
 0003:00002080       ?id@?$num_put@_WV?$ostreambuf_iterator@_WU?$char_traits@_W@std@@@std@@@std@@2V0locale@2@A 0000000180029080     libcpmt:wlocale.obj
 0003:00002088       ?id@?$collate@_W@std@@2V0locale@2@A 0000000180029088     libcpmt:wlocale.obj
 0003:00002090       ?id@?$messages@_W@std@@2V0locale@2@A 0000000180029090     libcpmt:wlocale.obj
 0003:00002098       ?id@?$money_get@_WV?$istreambuf_iterator@_WU?$char_traits@_W@std@@@std@@@std@@2V0locale@2@A 0000000180029098     libcpmt:wlocale.obj
 0003:000020a0       ?id@?$money_put@_WV?$ostreambuf_iterator@_WU?$char_traits@_W@std@@@std@@@std@@2V0locale@2@A 00000001800290a0     libcpmt:wlocale.obj
 0003:000020a8       ?id@?$moneypunct@_W$0A@@std@@2V0locale@2@A 00000001800290a8     libcpmt:wlocale.obj
 0003:000020b0       ?id@?$moneypunct@_W$00@std@@2V0locale@2@A 00000001800290b0     libcpmt:wlocale.obj
 0003:000020b8       ?id@?$time_get@_WV?$istreambuf_iterator@_WU?$char_traits@_W@std@@@std@@@std@@2V0locale@2@A 00000001800290b8     libcpmt:wlocale.obj
 0003:000020c0       ?id@?$num_get@GV?$istreambuf_iterator@GU?$char_traits@G@std@@@std@@@std@@2V0locale@2@A 00000001800290c0     libcpmt:wlocale.obj
 0003:000020c8       ?id@?$num_put@GV?$ostreambuf_iterator@GU?$char_traits@G@std@@@std@@@std@@2V0locale@2@A 00000001800290c8     libcpmt:wlocale.obj
 0003:000020d0       ?id@?$numpunct@G@std@@2V0locale@2@A 00000001800290d0     libcpmt:wlocale.obj
 0003:000020d8       ?id@?$collate@G@std@@2V0locale@2@A 00000001800290d8     libcpmt:wlocale.obj
 0003:000020e0       ?id@?$messages@G@std@@2V0locale@2@A 00000001800290e0     libcpmt:wlocale.obj
 0003:000020e8       ?id@?$money_get@GV?$istreambuf_iterator@GU?$char_traits@G@std@@@std@@@std@@2V0locale@2@A 00000001800290e8     libcpmt:wlocale.obj
 0003:000020f0       ?id@?$money_put@GV?$ostreambuf_iterator@GU?$char_traits@G@std@@@std@@@std@@2V0locale@2@A 00000001800290f0     libcpmt:wlocale.obj
 0003:000020f8       ?id@?$moneypunct@G$0A@@std@@2V0locale@2@A 00000001800290f8     libcpmt:wlocale.obj
 0003:00002100       ?id@?$moneypunct@G$00@std@@2V0locale@2@A 0000000180029100     libcpmt:wlocale.obj
 0003:00002108       ?id@?$time_get@GV?$istreambuf_iterator@GU?$char_traits@G@std@@@std@@@std@@2V0locale@2@A 0000000180029108     libcpmt:wlocale.obj
 0003:00002110       ?id@?$time_put@GV?$ostreambuf_iterator@GU?$char_traits@G@std@@@std@@@std@@2V0locale@2@A 0000000180029110     libcpmt:wlocale.obj
 0003:00002120       ?id@?$collate@D@std@@2V0locale@2@A 0000000180029120     libcpmt:xlocale.obj
 0003:00002128       ?id@?$messages@D@std@@2V0locale@2@A 0000000180029128     libcpmt:xlocale.obj
 0003:00002130       ?id@?$money_get@DV?$istreambuf_iterator@DU?$char_traits@D@std@@@std@@@std@@2V0locale@2@A 0000000180029130     libcpmt:xlocale.obj
 0003:00002138       ?id@?$money_put@DV?$ostreambuf_iterator@DU?$char_traits@D@std@@@std@@@std@@2V0locale@2@A 0000000180029138     libcpmt:xlocale.obj
 0003:00002140       ?id@?$moneypunct@D$0A@@std@@2V0locale@2@A 0000000180029140     libcpmt:xlocale.obj
 0003:00002148       ?id@?$moneypunct@D$00@std@@2V0locale@2@A 0000000180029148     libcpmt:xlocale.obj
 0003:00002150       ?id@?$time_get@DV?$istreambuf_iterator@DU?$char_traits@D@std@@@std@@@std@@2V0locale@2@A 0000000180029150     libcpmt:xlocale.obj
 0003:00002158       ?id@?$time_put@DV?$ostreambuf_iterator@DU?$char_traits@D@std@@@std@@@std@@2V0locale@2@A 0000000180029158     libcpmt:xlocale.obj
 0003:00002164       _FZero                     0000000180029164     libcpmt:xfvalues.obj
 0003:00002168       _Zero                      0000000180029168     libcpmt:xvalues.obj
 0003:00002170       _LZero                     0000000180029170     libcpmt:xlvalues.obj
 0003:00002178       __pInvalidArgHandler       0000000180029178     LIBCMT:invarg.obj
 0003:00002180       __lconv_static_null        0000000180029180     LIBCMT:lconv.obj
 0003:00002184       __lconv_static_W_null      0000000180029184     LIBCMT:lconv.obj
 0003:00002190       _aenvptr                   0000000180029190     LIBCMT:dllcrt0.obj
 0003:00002198       _wenvptr                   0000000180029198     LIBCMT:dllcrt0.obj
 0003:000021a0       __fastflag                 00000001800291a0     LIBCMT:fpinit.obj
 0003:000023e0       _maxwait                   00000001800293e0     LIBCMT:crtheap.obj
 0003:00002968       _C_Exit_Done               0000000180029968     LIBCMT:crt0dat.obj
 0003:0000296c       __argc                     000000018002996c     LIBCMT:crt0dat.obj
 0003:00002970       __argv                     0000000180029970     LIBCMT:crt0dat.obj
 0003:00002978       __wargv                    0000000180029978     LIBCMT:crt0dat.obj
 0003:00002980       _environ                   0000000180029980     LIBCMT:crt0dat.obj
 0003:00002988       _wenviron                  0000000180029988     LIBCMT:crt0dat.obj
 0003:00002990       _pgmptr                    0000000180029990     LIBCMT:crt0dat.obj
 0003:00002998       _wpgmptr                   0000000180029998     LIBCMT:crt0dat.obj
 0003:000029a0       _umaskval                  00000001800299a0     LIBCMT:crt0dat.obj
 0003:000029a4       _exitflag                  00000001800299a4     LIBCMT:crt0dat.obj
 0003:000029a8       _C_Termination_Done        00000001800299a8     LIBCMT:crt0dat.obj
 0003:000029b0       __winitenv                 00000001800299b0     LIBCMT:crt0dat.obj
 0003:000029b8       __initenv                  00000001800299b8     LIBCMT:crt0dat.obj
 0003:000029e4       __favor                    00000001800299e4     LIBCMT:cpu_disp.obj
 0003:000029e8       _crtheap                   00000001800299e8     LIBCMT:heapinit.obj
 0003:000029f0       __pPurecall                00000001800299f0     LIBCMT:inithelp.obj
 0003:000029f8       ?_pnhHeap@@3P6AH_K@ZEA     00000001800299f8     LIBCMT:handler.obj
 0003:00002a00       __mbcodepage               0000000180029a00     LIBCMT:mbctype.obj
 0003:00002a04       __ismbcodepage             0000000180029a04     LIBCMT:mbctype.obj
 0003:00002a08       __mbulinfo                 0000000180029a08     LIBCMT:mbctype.obj
 0003:00002a18       __mblocalename             0000000180029a18     LIBCMT:mbctype.obj
 0003:00002a24       __locale_changed           0000000180029a24     LIBCMT:wsetloca.obj
 0003:00002a30       __pioinfo                  0000000180029a30     LIBCMT:ioinit.obj
 0003:00002d38       ?g_OutOfMemoryExceptionCallback@@3P6APEAXXZEA 0000000180029d38     LIBCMT:frame.obj
 0003:00002d40       ?__pInconsistency@@3P6AXXZEA 0000000180029d40     LIBCMT:hooks.obj
 0003:00002d60       __app_type                 0000000180029d60     LIBCMT:crt0msg.obj
 0003:00003398       _newmode                   000000018002a398     LIBCMT:_newmode.obj
 0003:00003468       _stdbuf                    000000018002a468     LIBCMT:_sftbuf.obj
 0003:00003478       _cflush                    000000018002a478     LIBCMT:_file.obj
 0003:00003488       ?m_pGetParameter@UnDecorator@@0P6APEADJ@ZEA 000000018002a488     LIBCMT:undname.obj
 0003:00003490       ?pArgList@UnDecorator@@0PEAVReplicator@@EA 000000018002a490     LIBCMT:undname.obj
 0003:00003498       ?pZNameList@UnDecorator@@0PEAVReplicator@@EA 000000018002a498     LIBCMT:undname.obj
 0003:000034a0       ?pTemplateArgList@UnDecorator@@0PEAVReplicator@@EA 000000018002a4a0     LIBCMT:undname.obj
 0003:000034a8       ?gName@UnDecorator@@0PEBDEB 000000018002a4a8     LIBCMT:undname.obj
 0003:000034b0       ?name@UnDecorator@@0PEBDEB 000000018002a4b0     LIBCMT:undname.obj
 0003:000034b8       ?outputString@UnDecorator@@0PEADEA 000000018002a4b8     LIBCMT:undname.obj
 0003:000034c0       ?maxStringLength@UnDecorator@@0HA 000000018002a4c0     LIBCMT:undname.obj
 0003:000034c4       ?disableFlags@UnDecorator@@0KA 000000018002a4c4     LIBCMT:undname.obj
 0003:000034c8       ?fExplicitTemplateParams@UnDecorator@@0_NA 000000018002a4c8     LIBCMT:undname.obj
 0003:000034c9       ?fGetTemplateArgumentList@UnDecorator@@0_NA 000000018002a4c9     LIBCMT:undname.obj
 0003:000034f8       _outputformat              000000018002a4f8     LIBCMT:outputformat.obj
 0003:000034fc       __error_mode               000000018002a4fc     LIBCMT:errmode.obj
 0003:00003528       __pfnDliFailureHook2       000000018002a528     DelayImp:delayhk1.obj
 0003:00003530       ?_Psave@?$_Facetptr@V?$numpunct@D@std@@@std@@2PEBVfacet@locale@2@EB 000000018002a530     hanaRouting.obj
 0003:00003538       ?_Psave@?$_Facetptr@V?$ctype@D@std@@@std@@2PEBVfacet@locale@2@EB 000000018002a538     hanaRouting.obj
 0003:00003540       ?_Psave@?$_Facetptr@V?$num_put@DV?$ostreambuf_iterator@DU?$char_traits@D@std@@@std@@@std@@@std@@2PEBVfacet@locale@2@EB 000000018002a540     hanaRouting.obj
 0003:00003548       ?id@?$num_put@_WV?$back_insert_iterator@V?$basic_string@_WU?$char_traits@_W@std@@V?$allocator@_W@2@@std@@@std@@@std@@2V0locale@2@A 000000018002a548     hanaRouting.obj
 0003:00003550       ?_System_object@?$_Error_objects@H@std@@2V_System_error_category@2@A 000000018002a550     hanaRouting.obj
 0003:00003558       ?id@?$numpunct@_W@std@@2V0locale@2@A 000000018002a558     hanaRouting.obj
 0003:00003560       ?id@?$num_put@DV?$back_insert_iterator@V?$basic_string@DU?$char_traits@D@std@@V?$allocator@D@2@@std@@@std@@@std@@2V0locale@2@A 000000018002a560     hanaRouting.obj
 0003:00003568       ?id@?$num_put@DV?$ostreambuf_iterator@DU?$char_traits@D@std@@@std@@@std@@2V0locale@2@A 000000018002a568     hanaRouting.obj
 0003:00003570       ?_Iostream_object@?$_Error_objects@H@std@@2V_Iostream_error_category@2@A 000000018002a570     hanaRouting.obj
 0003:00003580       ?_Generic_object@?$_Error_objects@H@std@@2V_Generic_error_category@2@A 000000018002a580     hanaRouting.obj
 0003:00003588       ?id@?$numpunct@D@std@@2V0locale@2@A 000000018002a588     hanaRouting.obj
 0003:00003590       __piob                     000000018002a590     <common>
 0003:00003598       _nstream                   000000018002a598     <common>
 0003:000035a0       _bufin                     000000018002a5a0     <common>
 0003:000045a0       _nhandle                   000000018002b5a0     <common>
 0003:000045a4       _debugger_hook_dummy       000000018002b5a4     <common>
 0003:000045a8       __dyn_tls_init_callback    000000018002b5a8     <common>
 0003:000045b0       __onexitend                000000018002b5b0     <common>
 0003:000045b8       __onexitbegin              000000018002b5b8     <common>
 0003:000045c0       __mbctype_initialized      000000018002b5c0     <common>
 0003:000045c4       __env_initialized          000000018002b5c4     <common>
 0003:000045e0       encodedKERNEL32Functions   000000018002b5e0     <common>
 0003:000046e8       _acmdln                    000000018002b6e8     <common>

 entry point at        0001:000067e0

 Static symbols

 0000:fffd0000       .debug$S                   0000000180000000     kernel32:KERNEL32.dll
 0000:fffd0000       .debug$S                   0000000180000000     kernel32:KERNEL32.dll
 0000:fffd0000       .debug$S                   0000000180000000     kernel32:KERNEL32.dll
 0000:fffd0000       .debug$S                   0000000180000000     kernel32:KERNEL32.dll
 0000:fffd0000       .debug$S                   0000000180000000     kernel32:KERNEL32.dll
 0000:fffd0000       .debug$S                   0000000180000000     kernel32:KERNEL32.dll
 0000:fffd0000       .debug$S                   0000000180000000     kernel32:KERNEL32.dll
 0000:fffd0000       .debug$S                   0000000180000000     kernel32:KERNEL32.dll
 0000:fffd0000       .debug$S                   0000000180000000     kernel32:KERNEL32.dll
 0000:fffd0000       .debug$S                   0000000180000000     kernel32:KERNEL32.dll
 0000:fffd0000       .debug$S                   0000000180000000     kernel32:KERNEL32.dll
 0000:fffd0000       .debug$S                   0000000180000000     kernel32:KERNEL32.dll
 0000:fffd0000       .debug$S                   0000000180000000     kernel32:KERNEL32.dll
 0000:fffd0000       .debug$S                   0000000180000000     kernel32:KERNEL32.dll
 0000:fffd0000       .debug$S                   0000000180000000     kernel32:KERNEL32.dll
 0000:fffd0000       .debug$S                   0000000180000000     kernel32:KERNEL32.dll
 0000:fffd0000       .debug$S                   0000000180000000     kernel32:KERNEL32.dll
 0000:fffd0000       .debug$S                   0000000180000000     kernel32:KERNEL32.dll
 0000:fffd0000       .debug$S                   0000000180000000     kernel32:KERNEL32.dll
 0000:fffd0000       .debug$S                   0000000180000000     kernel32:KERNEL32.dll
 0000:fffd0000       .debug$S                   0000000180000000     kernel32:KERNEL32.dll
 0000:fffd0000       .debug$S                   0000000180000000     kernel32:KERNEL32.dll
 0000:fffd0000       .debug$S                   0000000180000000     kernel32:KERNEL32.dll
 0000:fffd0000       .debug$S                   0000000180000000     kernel32:KERNEL32.dll
 0000:fffd0000       .debug$S                   0000000180000000     kernel32:KERNEL32.dll
 0000:fffd0000       .debug$S                   0000000180000000     kernel32:KERNEL32.dll
 0000:fffd0000       .debug$S                   0000000180000000     kernel32:KERNEL32.dll
 0000:fffd0000       .debug$S                   0000000180000000     kernel32:KERNEL32.dll
 0000:fffd0000       .debug$S                   0000000180000000     kernel32:KERNEL32.dll
 0000:fffd0000       .debug$S                   0000000180000000     kernel32:KERNEL32.dll
 0000:fffd0000       .debug$S                   0000000180000000     kernel32:KERNEL32.dll
 0000:fffd0000       .debug$S                   0000000180000000     kernel32:KERNEL32.dll
 0000:fffd0000       .debug$S                   0000000180000000     kernel32:KERNEL32.dll
 0000:fffd0000       .debug$S                   0000000180000000     kernel32:KERNEL32.dll
 0000:fffd0000       .debug$S                   0000000180000000     kernel32:KERNEL32.dll
 0000:fffd0000       .debug$S                   0000000180000000     kernel32:KERNEL32.dll
 0000:fffd0000       .debug$S                   0000000180000000     kernel32:KERNEL32.dll
 0000:fffd0000       .debug$S                   0000000180000000     kernel32:KERNEL32.dll
 0000:fffd0000       .debug$S                   0000000180000000     kernel32:KERNEL32.dll
 0000:fffd0000       .debug$S                   0000000180000000     kernel32:KERNEL32.dll
 0000:fffd0000       .debug$S                   0000000180000000     kernel32:KERNEL32.dll
 0000:fffd0000       .debug$S                   0000000180000000     kernel32:KERNEL32.dll
 0000:fffd0000       .debug$S                   0000000180000000     kernel32:KERNEL32.dll
 0000:fffd0000       .debug$S                   0000000180000000     kernel32:KERNEL32.dll
 0000:fffd0000       .debug$S                   0000000180000000     kernel32:KERNEL32.dll
 0000:fffd0000       .debug$S                   0000000180000000     kernel32:KERNEL32.dll
 0000:fffd0000       .debug$S                   0000000180000000     kernel32:KERNEL32.dll
 0000:fffd0000       .debug$S                   0000000180000000     kernel32:KERNEL32.dll
 0000:fffd0000       .debug$S                   0000000180000000     kernel32:KERNEL32.dll
 0000:fffd0000       .debug$S                   0000000180000000     kernel32:KERNEL32.dll
 0000:fffd0000       .debug$S                   0000000180000000     kernel32:KERNEL32.dll
 0000:fffd0000       .debug$S                   0000000180000000     kernel32:KERNEL32.dll
 0000:fffd0000       .debug$S                   0000000180000000     kernel32:KERNEL32.dll
 0000:fffd0000       .debug$S                   0000000180000000     kernel32:KERNEL32.dll
 0000:fffd0000       .debug$S                   0000000180000000     kernel32:KERNEL32.dll
 0000:fffd0000       .debug$S                   0000000180000000     kernel32:KERNEL32.dll
 0000:fffd0000       .debug$S                   0000000180000000     kernel32:KERNEL32.dll
 0000:fffd0000       .debug$S                   0000000180000000     kernel32:KERNEL32.dll
 0000:fffd0000       .debug$S                   0000000180000000     kernel32:KERNEL32.dll
 0000:fffd0000       .debug$S                   0000000180000000     kernel32:KERNEL32.dll
 0000:fffd0000       .debug$S                   0000000180000000     kernel32:KERNEL32.dll
 0000:fffd0000       .debug$S                   0000000180000000     kernel32:KERNEL32.dll
 0000:fffd0000       .debug$S                   0000000180000000     kernel32:KERNEL32.dll
 0000:fffd0000       .debug$S                   0000000180000000     kernel32:KERNEL32.dll
 0000:fffd0000       .debug$S                   0000000180000000     kernel32:KERNEL32.dll
 0000:fffd0000       .debug$S                   0000000180000000     kernel32:KERNEL32.dll
 0000:fffd0000       .debug$S                   0000000180000000     kernel32:KERNEL32.dll
 0000:fffd0000       .debug$S                   0000000180000000     kernel32:KERNEL32.dll
 0000:fffd0000       .debug$S                   0000000180000000     kernel32:KERNEL32.dll
 0000:fffd0000       .debug$S                   0000000180000000     kernel32:KERNEL32.dll
 0000:fffd0000       .debug$S                   0000000180000000     node:node.exe
 0000:fffd0000       .debug$S                   0000000180000000     node:node.exe
 0000:fffd0000       .debug$S                   0000000180000000     node:node.exe
 0000:fffd0000       .debug$S                   0000000180000000     node:node.exe
 0000:fffd0000       .debug$S                   0000000180000000     node:node.exe
 0000:fffd0000       .debug$S                   0000000180000000     node:node.exe
 0000:fffd0000       .debug$S                   0000000180000000     node:node.exe
 0000:fffd0000       .debug$S                   0000000180000000     node:node.exe
 0000:fffd0000       .debug$S                   0000000180000000     node:node.exe
 0000:fffd0000       .debug$S                   0000000180000000     kernel32:KERNEL32.dll
 0000:fffd0000       .debug$S                   0000000180000000     node:node.exe
 0000:fffd0000       .debug$S                   0000000180000000     kernel32:KERNEL32.dll
 0000:fffd0000       .debug$S                   0000000180000000     kernel32:KERNEL32.dll
 0000:fffd0000       .debug$S                   0000000180000000     kernel32:KERNEL32.dll
 0000:fffd0000       .debug$S                   0000000180000000     kernel32:KERNEL32.dll
 0000:fffd0000       .debug$S                   0000000180000000     kernel32:KERNEL32.dll
 0000:fffd0000       .debug$S                   0000000180000000     kernel32:KERNEL32.dll
 0000:fffd0000       .debug$S                   0000000180000000     kernel32:KERNEL32.dll
 0000:fffd0000       .debug$S                   0000000180000000     kernel32:KERNEL32.dll
 0000:fffd0000       .debug$S                   0000000180000000     kernel32:KERNEL32.dll
 0000:fffd0000       .debug$S                   0000000180000000     kernel32:KERNEL32.dll
 0000:fffd0000       .debug$S                   0000000180000000     kernel32:KERNEL32.dll
 0000:fffd0000       .debug$S                   0000000180000000     kernel32:KERNEL32.dll
 0000:fffd0000       .debug$S                   0000000180000000     kernel32:KERNEL32.dll
 0001:00000000       ??__Epiecewise_construct@std@@YAXXZ 0000000180001000 f   hanaRouting.obj
 0001:00000010       ??__Eallocator_arg@std@@YAXXZ 0000000180001010 f   hanaRouting.obj
 0001:00000014       ??__E_Fac_tidy_reg@std@@YAXXZ 0000000180001014 f   libcpmt:locale0.obj
 0001:00000020       ??__Eclassic_locale@std@@YAXXZ 0000000180001020 f   libcpmt:locale0.obj
 0001:0000002c       ??__Einitlocks@std@@YAXXZ  000000018000102c f   libcpmt:xlock.obj
 0001:0000004c       ??__Einit_atexit@@YAXXZ    000000018000104c f   libcpmt:iosptrs.obj
 0001:00000058       ??__Einitlocks@std@@YAXXZ  0000000180001058 f   libcpmt:iosptrs.obj
 0001:00001060       _register_addon            0000000180002060 f   hanaRouting.obj
 0001:00004ce0       load_exe_hook              0000000180005ce0 f   win_delay_load_hook.obj
 0001:00005230       tidy_global                0000000180006230 f   libcpmt:locale0.obj
 0001:00005970       $$000000                   0000000180006970     LIBCMT:amdsecgs.obj
 0001:00005c00       $$000000                   0000000180006c00     LIBCMT:memcpy.obj
 0001:00005cf0       MoveSmall                  0000000180006cf0     LIBCMT:memcpy.obj
 0001:00006820       __DllMainCRTStartup        0000000180007820 f   LIBCMT:dllcrt0.obj
 0001:00006ef4       ?x_ismbbtype_l@@YAHPEAUlocaleinfo_struct@@IHH@Z 0000000180007ef4 f   LIBCMT:ismbbyte.obj
 0001:00006f90       $$000000                   0000000180007f90     LIBCMT:memset.obj
 0001:00007135       MsetTab                    0000000180008135     LIBCMT:memset.obj
 0001:000071d0       $$000000                   00000001800081d0     LIBCMT:strlen.obj
 0001:000083a4       ?__crtLCMapStringA_stat@@YAHPEAUlocaleinfo_struct@@PEB_WKPEBDHPEADHHH@Z 00000001800093a4 f   LIBCMT:a_map.obj
 0001:000088b0       $$000000                   00000001800098b0     LIBCMT:strcmp.obj
 0001:00009150       $$000000                   000000018000a150     LIBCMT:memcmp.obj
 0001:000093dc       __crtEnumLocalesProc       000000018000a3dc f   LIBCMT:winapinls.obj
 0001:00009ac4       _initterm                  000000018000aac4 f   LIBCMT:crt0dat.obj
 0001:00009b78       doexit                     000000018000ab78 f   LIBCMT:crt0dat.obj
 0001:0000afc8       ?getSystemCP@@YAHH@Z       000000018000bfc8 f   LIBCMT:mbctype.obj
 0001:0000b048       ?setSBCS@@YAXPEAUthreadmbcinfostruct@@@Z 000000018000c048 f   LIBCMT:mbctype.obj
 0001:0000b0d8       ?setSBUpLow@@YAXPEAUthreadmbcinfostruct@@@Z 000000018000c0d8 f   LIBCMT:mbctype.obj
 0001:0000bb94       _copytlocinfo_nolock       000000018000cb94 f   LIBCMT:wsetloca.obj
 0001:0000c228       _wsetlocale_get_all        000000018000d228 f   LIBCMT:wsetloca.obj
 0001:0000c3fc       _wsetlocale_nolock         000000018000d3fc f   LIBCMT:wsetloca.obj
 0001:0000c668       _wsetlocale_set_cat        000000018000d668 f   LIBCMT:wsetloca.obj
 0001:0000cff0       parse_cmdline              000000018000dff0 f   LIBCMT:stdargv.obj
 0001:0000d504       ?__crtGetStringTypeA_stat@@YAHPEAUlocaleinfo_struct@@KPEBDHPEAGHH@Z 000000018000e504 f   LIBCMT:a_str.obj
 0001:0000d7d8       ?CatchIt@@YAXPEAUEHExceptionRecord@@PEA_KPEAU_CONTEXT@@PEAU_xDISPATCHER_CONTEXT@@PEBU_s_FuncInfo@@PEBU_s_HandlerType@@PEBU_s_CatchableType@@PEBU_s_TryBlockMapEntry@@H1EE@Z 000000018000e7d8 f   LIBCMT:frame.obj
 0001:0000d89c       ?FindHandler@@YAXPEAUEHExceptionRecord@@PEA_KPEAU_CONTEXT@@PEAU_xDISPATCHER_CONTEXT@@PEBU_s_FuncInfo@@EH1@Z 000000018000e89c f   LIBCMT:frame.obj
 0001:0000dd50       ?FindHandlerForForeignException@@YAXPEAUEHExceptionRecord@@PEA_KPEAU_CONTEXT@@PEAU_xDISPATCHER_CONTEXT@@PEBU_s_FuncInfo@@HH1@Z 000000018000ed50 f   LIBCMT:frame.obj
 0001:0000dfb8       ?IsInExceptionSpec@@YAEPEAUEHExceptionRecord@@PEBU_s_ESTypeList@@@Z 000000018000efb8 f   LIBCMT:frame.obj
 0001:0000f14c       _cftoe2_l                  000000018001014c f   LIBCMT:cvt.obj
 0001:0000f440       _cftof2_l                  0000000180010440 f   LIBCMT:cvt.obj
 0001:00010590       $$000000                   0000000180011590     LIBCMT:chkstk.obj
 0001:0001218c       write_char                 000000018001318c f   LIBCMT:outputs.obj
 0001:000121d4       write_multi_char           00000001800131d4 f   LIBCMT:outputs.obj
 0001:00012228       write_string               0000000180013228 f   LIBCMT:outputs.obj
 0001:00013250       _get_lc_time               0000000180014250 f   LIBCMT:inittime.obj
 0001:00013dd0       $$000000                   0000000180014dd0     LIBCMT:jmpuwind.obj
 0001:00013f00       ?__crtGetLocaleInfoA_stat@@YAHPEAUlocaleinfo_struct@@PEB_WKPEADH@Z 0000000180014f00 f   LIBCMT:a_loc.obj
 0001:000140e0       $$000000                   00000001800150e0     LIBCMT:fpsr.obj
 0001:00014374       GetLocaleNameFromLangCountry 0000000180015374 f   LIBCMT:getqloc.obj
 0001:00014424       GetLocaleNameFromLanguage  0000000180015424 f   LIBCMT:getqloc.obj
 0001:000144ac       LangCountryEnumProcEx      00000001800154ac f   LIBCMT:getqloc.obj
 0001:00014838       LanguageEnumProcEx         0000000180015838 f   LIBCMT:getqloc.obj
 0001:00014918       ProcessCodePage            0000000180015918 f   LIBCMT:getqloc.obj
 0001:000149cc       TestDefaultCountry         00000001800159cc f   LIBCMT:getqloc.obj
 0001:00014cc0       CountryEnumProc            0000000180015cc0 f   LIBCMT:getqloc_downlevel.obj
 0001:00014dac       GetLcidFromLangCountry     0000000180015dac f   LIBCMT:getqloc_downlevel.obj
 0001:00014e60       GetLcidFromLanguage        0000000180015e60 f   LIBCMT:getqloc_downlevel.obj
 0001:00014ef4       LangCountryEnumProc        0000000180015ef4 f   LIBCMT:getqloc_downlevel.obj
 0001:00015124       LanguageEnumProc           0000000180016124 f   LIBCMT:getqloc_downlevel.obj
 0001:00015220       LcidFromHexString          0000000180016220 f   LIBCMT:getqloc_downlevel.obj
 0001:00015270       ProcessCodePage            0000000180016270 f   LIBCMT:getqloc_downlevel.obj
 0001:00015320       TestDefaultLanguage        0000000180016320 f   LIBCMT:getqloc_downlevel.obj
 0001:000153c8       TranslateName              00000001800163c8 f   LIBCMT:getqloc_downlevel.obj
 0001:000153c8       TranslateName              00000001800163c8 f   LIBCMT:getqloc_downlevel.obj
 0001:00015710       $$000000                   0000000180016710     LIBCMT:handlers.obj
 0001:00016168       flsall                     0000000180017168 f   LIBCMT:fflush.obj
 0001:000166bc       xtow_s                     00000001800176bc f   LIBCMT:xtows.obj
 0001:00018ad8       ?wcstoxl@@YAKPEB_WPEAPEB_WHH@Z 0000000180019ad8 f   LIBCMT:wcstol.obj
 0001:000194f0       ?dtor$0@?0??_Locimp_dtor@_Locimp@locale@std@@CAXPEAV123@@Z@4HA 000000018001a4f0 f   libcpmt:locale0.obj
 0001:000194f0       ?dtor$0@?0??_Init@locale@std@@CAPEAV_Locimp@12@_N@Z@4HA 000000018001a4f0 f   libcpmt:locale0.obj
 0001:000194fc       _onexit$fin$0              000000018001a4fc f   LIBCMT:onexit.obj
 0001:00019510       _CRT_INIT$fin$0            000000018001a510 f   LIBCMT:dllcrt0.obj
 0001:00019536       __DllMainCRTStartup$filt$0 000000018001a536 f   LIBCMT:dllcrt0.obj
 0001:0001957f       _CallSETranslator$filt$0   000000018001a57f f   LIBCMT:trnsctrl.obj
 0001:000195c5       setlocale$fin$0            000000018001a5c5 f   LIBCMT:setlocal.obj
 0001:000195e0       _mtinitlocknum$fin$0       000000018001a5e0 f   LIBCMT:mlock.obj
 0001:000195fd       doexit$fin$0               000000018001a5fd f   LIBCMT:crt0dat.obj
 0001:00019621       raise$fin$0                000000018001a621 f   LIBCMT:winsig.obj
 0001:0001963f       __updatetlocinfo$fin$0     000000018001a63f f   LIBCMT:localref.obj
 0001:0001963f       _locterm$fin$0             000000018001a63f f   LIBCMT:localref.obj
 0001:00019658       _initptd$fin$1             000000018001a658 f   LIBCMT:tidtable.obj
 0001:00019658       _freefls$fin$1             000000018001a658 f   LIBCMT:tidtable.obj
 0001:00019671       _initptd$fin$0             000000018001a671 f   LIBCMT:tidtable.obj
 0001:00019671       _freefls$fin$0             000000018001a671 f   LIBCMT:tidtable.obj
 0001:0001968a       __updatetmbcinfo$fin$0     000000018001a68a f   LIBCMT:mbctype.obj
 0001:0001968a       _setmbcp$fin$0             000000018001a68a f   LIBCMT:mbctype.obj
 0001:000196a3       _wsetlocale$fin$1          000000018001a6a3 f   LIBCMT:wsetloca.obj
 0001:000196be       _wsetlocale$fin$0          000000018001a6be f   LIBCMT:wsetloca.obj
 0001:000196d9       _wsetlocale$fin$2          000000018001a6d9 f   LIBCMT:wsetloca.obj
 0001:000196f4       _ioinit$fin$0              000000018001a6f4 f   LIBCMT:ioinit.obj
 0001:0001970f       __CxxCallCatchBlock$filt$0 000000018001a70f f   LIBCMT:frame.obj
 0001:00019803       __CxxCallCatchBlock$fin$1  000000018001a803 f   LIBCMT:frame.obj
 0001:00019881       __DestructExceptionObject$filt$0 000000018001a881 f   LIBCMT:frame.obj
 0001:00019899       __FrameUnwindToState$filt$0 000000018001a899 f   LIBCMT:frame.obj
 0001:000198af       __FrameUnwindToState$fin$1 000000018001a8af f   LIBCMT:frame.obj
 0001:000198d8       ?fin$0@?0??_Type_info_dtor@type_info@@CAXPEAV1@@Z@4HA 000000018001a8d8 f   LIBCMT:typname.obj
 0001:00019900       _IsNonwritableInCurrentImage$filt$0 000000018001a900 f   LIBCMT:pesect.obj
 0001:00019920       _lseeki64$fin$0            000000018001a920 f   LIBCMT:lseeki64.obj
 0001:00019920       _write$fin$0               000000018001a920 f   LIBCMT:lseeki64.obj
 0001:00019937       flsall$fin$0               000000018001a937 f   LIBCMT:fflush.obj
 0001:0001995f       flsall$fin$1               000000018001a95f f   LIBCMT:fflush.obj
 0001:00019978       _fcloseall$fin$0           000000018001a978 f   LIBCMT:closeall.obj
 0001:00019991       __lock_fhandle$fin$0       000000018001a991 f   LIBCMT:osfinfo.obj
 0001:000199aa       _close$fin$0               000000018001a9aa f   LIBCMT:commit.obj
 0001:000199aa       _commit$fin$0              000000018001a9aa f   LIBCMT:commit.obj
 0001:000199c1       fclose$fin$0               000000018001a9c1 f   LIBCMT:fclose.obj
 0001:000199e0       ??__F_Fac_tidy_reg@std@@YAXXZ 000000018001a9e0 f   libcpmt:locale0.obj
 0001:00019a2c       ??__Fclassic_locale@std@@YAXXZ 000000018001aa2c f   libcpmt:locale0.obj
 0001:00019a5c       ??__Finitlocks@std@@YAXXZ  000000018001aa5c f   libcpmt:xlock.obj
 0001:00019a68       ??__Finit_atexit@@YAXXZ    000000018001aa68 f   libcpmt:iosptrs.obj
 0001:00019aa4       ??__Finitlocks@std@@YAXXZ  000000018001aaa4 f   libcpmt:iosptrs.obj
 0002:00000250       initlocks$initializer$     000000018001b250     libcpmt:xlock.obj
 0002:00000258       initlocks$initializer$     000000018001b258     libcpmt:iosptrs.obj
 0002:00000260       init_atexit$initializer$   000000018001b260     libcpmt:iosptrs.obj
 0002:00000268       _Fac_tidy_reg$initializer$ 000000018001b268     libcpmt:locale0.obj
 0002:00000270       classic_locale$initializer$ 000000018001b270     libcpmt:locale0.obj
 0002:00000278       piecewise_construct$initializer$ 000000018001b278     hanaRouting.obj
 0002:00000280       allocator_arg$initializer$ 000000018001b280     hanaRouting.obj
 0002:000002a0       pinit                      000000018001b2a0     LIBCMT:onexit.obj
 0002:000002a8       pinit                      000000018001b2a8     LIBCMT:cpu_disp.obj
 0002:000002b0       pinit                      000000018001b2b0     LIBCMT:mbctype.obj
 0002:000002b8       pinit                      000000018001b2b8     LIBCMT:_file.obj
 0002:000002d0       pterm                      000000018001b2d0     LIBCMT:wsetloca.obj
 0002:000002d8       pterm                      000000018001b2d8     LIBCMT:initcon.obj
 0002:000002e0       pterm                      000000018001b2e0     LIBCMT:_file.obj
 0002:00000350       _Win_errtab                000000018001b350     libcpmt:syserror.obj
 0002:00000800       _Sys_errtab                000000018001b800     libcpmt:syserror.obj
 0002:00001640       $cppxdata$?_Locimp_dtor@_Locimp@locale@std@@CAXPEAV123@@Z 000000018001c640     libcpmt:locale0.obj
 0002:00001668       $cppxdata$?_Init@locale@std@@CAPEAV_Locimp@12@_N@Z 000000018001c668     libcpmt:locale0.obj
 0002:00001878       digits                     000000018001c878     libcpmt:xstoul.obj
 0002:000018a0       ndigs                      000000018001c8a0     libcpmt:xstoul.obj
 0002:000018c8       digits                     000000018001c8c8     libcpmt:xstoull.obj
 0002:000018f0       ndigs                      000000018001c8f0     libcpmt:xstoull.obj
 0002:00001918       ?digits@?1??_Stoxflt@@9@9  000000018001c918     libcpmt:xstoxflt.obj
 0002:00001930       ?vals@?1??_Stoxflt@@9@9    000000018001c930     libcpmt:xstoxflt.obj
 0002:00001948       tenth                      000000018001c948     libcpmt:xfdtento.obj
 0002:00001960       tenth                      000000018001c960     libcpmt:xdtento.obj
 0002:00001978       tenth                      000000018001c978     libcpmt:xldtento.obj
 0002:00001990       ?mask@?3??_FDint@@9@9      000000018001c990     libcpmt:xfdint.obj
 0002:000019b0       ?sub@?3??_FDint@@9@9       000000018001c9b0     libcpmt:xfdint.obj
 0002:000019c0       ?mask@?3??_Dint@@9@9       000000018001c9c0     libcpmt:xdint.obj
 0002:000019e0       ?sub@?3??_Dint@@9@9        000000018001c9e0     libcpmt:xdint.obj
 0002:00001a10       ?ExceptionTemplate@?1??_CxxThrowException@@9@4UEHExceptionRecord@@B 000000018001ca10     LIBCMT:throw.obj
 0002:00001a50       ?ExceptionTemplate@?1??_UnwindNestedFrames@@9@4U_EXCEPTION_RECORD@@B 000000018001ca50     LIBCMT:trnsctrl.obj
 0002:000059b8       GS_ExceptionPointers       00000001800209b8     LIBCMT:gs_report.obj
 0002:00005e18       _mb_locale_names           0000000180020e18     LIBCMT:mbctype.obj
 0002:00005f50       _first_127char             0000000180020f50     LIBCMT:wsetloca.obj
 0002:00006110       rterrs                     0000000180021110     LIBCMT:crt0msg.obj
 0002:00006de0       __real@433fffffffffffff    0000000180021de0     LIBCMT:fpsr.obj
 0002:00006de8       __real@c33fffffffffffff    0000000180021de8     LIBCMT:fpsr.obj
 0002:00007db0       tokenTable                 0000000180022db0     LIBCMT:undname.obj
 0002:00007e20       nameTable                  0000000180022e20     LIBCMT:undname.obj
 0002:000080a0       rttiTable                  00000001800230a0     LIBCMT:undname.obj
 0002:000092a0       $unwind$_getbuf            00000001800242a0     LIBCMT:_getbuf.obj
 0002:000092a0       $unwind$_freebuf           00000001800242a0     LIBCMT:_freebuf.obj
 0002:000092a0       $unwind$__crtExitProcess   00000001800242a0     LIBCMT:crt0dat.obj
 0002:000092a0       $unwind$__crtCorExitProcess 00000001800242a0     LIBCMT:crt0dat.obj
 0002:000092a0       $unwind$??_Gfailure@ios_base@std@@UEAAPEAXI@Z 00000001800242a0     hanaRouting.obj
 0002:000092a0       $unwind$_cinit             00000001800242a0     LIBCMT:crt0dat.obj
 0002:000092a0       $unwind$??_G_Facet_base@std@@UEAAPEAXI@Z 00000001800242a0     hanaRouting.obj
 0002:000092a0       $unwind$_amsg_exit         00000001800242a0     LIBCMT:crt0dat.obj
 0002:000092a0       $unwind$GetLocaleNameFromLangCountry 00000001800242a0     LIBCMT:getqloc.obj
 0002:000092a0       $unwind$??_Gruntime_error@std@@UEAAPEAXI@Z 00000001800242a0     hanaRouting.obj
 0002:000092a0       $unwind$_init_pointers     00000001800242a0     LIBCMT:crt0dat.obj
 0002:000092a0       $unwind$GetLocaleNameFromLanguage 00000001800242a0     LIBCMT:getqloc.obj
 0002:000092a0       $unwind$_Getctype          00000001800242a0     libcpmt:_tolower.obj
 0002:000092a0       $unwind$?do_falsename@?$numpunct@D@std@@MEBA?AV?$basic_string@DU?$char_traits@D@std@@V?$allocator@D@2@@2@XZ 00000001800242a0     hanaRouting.obj
 0002:000092a0       $unwind$??_D?$basic_ostringstream@DU?$char_traits@D@std@@V?$allocator@D@2@@std@@QEAAXXZ 00000001800242a0     hanaRouting.obj
 0002:000092a0       $unwind$?do_grouping@?$numpunct@D@std@@MEBA?AV?$basic_string@DU?$char_traits@D@std@@V?$allocator@D@2@@2@XZ 00000001800242a0     hanaRouting.obj
 0002:000092a0       $unwind$_lock_file2        00000001800242a0     LIBCMT:_file.obj
 0002:000092a0       $unwind$_fflush_nolock     00000001800242a0     LIBCMT:fflush.obj
 0002:000092a0       $unwind$?uflow@?$basic_streambuf@DU?$char_traits@D@std@@@std@@MEAAHXZ 00000001800242a0     hanaRouting.obj
 0002:000092a0       $unwind$calloc             00000001800242a0     LIBCMT:calloc.obj
 0002:000092a0       $unwind$__raise_securityfailure 00000001800242a0     LIBCMT:gs_report.obj
 0002:000092a0       $unwind$??0bad_exception@std@@QEAA@AEBV01@@Z 00000001800242a0     LIBCMT:frame.obj
 0002:000092a0       $unwind$?_Tidy@exception@std@@AEAAXXZ 00000001800242a0     LIBCMT:stdexcpt.obj
 0002:000092a0       $unwind$_SetThrowImageBase 00000001800242a0     LIBCMT:trnsctrl.obj
 0002:000092a0       $unwind$_lock_file         00000001800242a0     LIBCMT:_file.obj
 0002:000092a0       $unwind$??_G?$num_put@DV?$ostreambuf_iterator@DU?$char_traits@D@std@@@std@@@std@@MEAAPEAXI@Z 00000001800242a0     hanaRouting.obj
 0002:000092a0       $unwind$strcpy_s           00000001800242a0     LIBCMT:strcpy_s.obj
 0002:000092a0       $unwind$__GSHandlerCheckCommon 00000001800242a0     LIBCMT:gshandler.obj
 0002:000092a0       $unwind$??0exception@std@@QEAA@AEBV01@@Z 00000001800242a0     LIBCMT:stdexcpt.obj
 0002:000092a0       $unwind$??_Gexception@stdext@@UEAAPEAXI@Z 00000001800242a0     hanaRouting.obj
 0002:000092a0       $unwind$?do_truename@?$numpunct@D@std@@MEBA?AV?$basic_string@DU?$char_traits@D@std@@V?$allocator@D@2@@2@XZ 00000001800242a0     hanaRouting.obj
 0002:000092a0       $unwind$load_exe_hook      00000001800242a0     win_delay_load_hook.obj
 0002:000092a0       $unwind$strncpy_s          00000001800242a0     LIBCMT:strncpy_s.obj
 0002:000092a0       $unwind$_getptd            00000001800242a0     LIBCMT:tidtable.obj
 0002:000092a0       $unwind$?_Facet_Register@std@@YAXPEAV_Facet_base@1@@Z 00000001800242a0     libcpmt:locale0.obj
 0002:000092a0       $unwind$??0out_of_range@std@@QEAA@AEBV01@@Z 00000001800242a0     libcpmt:xthrow.obj
 0002:000092a0       $unwind$??__F_Fac_tidy_reg@std@@YAXXZ 00000001800242a0     libcpmt:locale0.obj
 0002:000092a0       $unwind$__onexitinit       00000001800242a0     LIBCMT:onexit.obj
 0002:000092a0       $unwind$?_Ios_base_dtor@ios_base@std@@CAXPEAV12@@Z 00000001800242a0     libcpmt:ios.obj
 0002:000092a0       $unwind$??1?$basic_stringbuf@DU?$char_traits@D@std@@V?$allocator@D@2@@std@@UEAA@XZ 00000001800242a0     hanaRouting.obj
 0002:000092a0       $unwind$wcscat_s           00000001800242a0     LIBCMT:wcscat_s.obj
 0002:000092a0       $unwind$_freeptd           00000001800242a0     LIBCMT:tidtable.obj
 0002:000092a0       $unwind$??0length_error@std@@QEAA@AEBV01@@Z 00000001800242a0     libcpmt:xthrow.obj
 0002:000092a0       $unwind$??0exception@std@@QEAA@AEBQEBD@Z 00000001800242a0     LIBCMT:stdexcpt.obj
 0002:000092a0       $unwind$?do_widen@?$ctype@D@std@@MEBAPEBDPEBD0PEAD@Z 00000001800242a0     hanaRouting.obj
 0002:000092a0       $unwind$??0logic_error@std@@QEAA@AEBV01@@Z 00000001800242a0     libcpmt:xthrow.obj
 0002:000092a0       $unwind$??0_LocaleUpdate@@QEAA@PEAUlocaleinfo_struct@@@Z 00000001800242a0     LIBCMT:stricmp.obj
 0002:000092a0       $unwind$_IsExceptionObjectToBeDestroyed 00000001800242a0     LIBCMT:trnsctrl.obj
 0002:000092a0       $unwind$??0bad_alloc@std@@QEAA@AEBV01@@Z 00000001800242a0     libcpmt:xthrow.obj
 0002:000092a0       $unwind$?do_narrow@?$ctype@D@std@@MEBAPEBDPEBD0DPEAD@Z 00000001800242a0     hanaRouting.obj
 0002:000092a0       $unwind$?_Setgloballocale@locale@std@@CAXPEAX@Z 00000001800242a0     libcpmt:locale0.obj
 0002:000092a0       $unwind$_mtinit            00000001800242a0     LIBCMT:tidtable.obj
 0002:000092a0       $unwind$write_char         00000001800242a0     LIBCMT:outputs.obj
 0002:000092a0       $unwind$wcscpy_s           00000001800242a0     LIBCMT:wcscpy_s.obj
 0002:000092a0       $unwind$wcsncpy_s          00000001800242a0     LIBCMT:wcsncpy_s.obj
 0002:000092a0       $unwind$__crtIsPackagedApp 00000001800242a0     LIBCMT:winapisupp.obj
 0002:000092a0       $unwind$??0_Lockit@std@@QEAA@H@Z 00000001800242a0     libcpmt:xlock.obj
 0002:000092a0       $unwind$_CreateFrameInfo   00000001800242a0     LIBCMT:trnsctrl.obj
 0002:000092a0       $unwind$??_G_System_error@std@@UEAAPEAXI@Z 00000001800242a0     hanaRouting.obj
 0002:000092a0       $unwind$_callnewh          00000001800242a0     LIBCMT:handler.obj
 0002:000092a0       $unwind$__crtUnhandledException 00000001800242a0     LIBCMT:winapisupp.obj
 0002:000092a0       $unwind$__crtTerminateProcess 00000001800242a0     LIBCMT:winapisupp.obj
 0002:000092a0       $unwind$__crtLoadWinApiPointers 00000001800242a0     LIBCMT:winapisupp.obj
 0002:000092a0       $unwind$?__GetUnwindTryBlock@@YAHPEA_KPEAU_xDISPATCHER_CONTEXT@@PEBU_s_FuncInfo@@@Z 00000001800242a0     LIBCMT:ehstate.obj
 0002:000092a0       $unwind$_SetImageBase      00000001800242a0     LIBCMT:trnsctrl.obj
 0002:000092a8       $unwind$_invalid_parameter_noinfo 00000001800242a8     LIBCMT:invarg.obj
 0002:000092a8       $unwind$?_Doraise@failure@ios_base@std@@MEBAXXZ 00000001800242a8     hanaRouting.obj
 0002:000092a8       $unwind$_cfltcvt_l         00000001800242a8     LIBCMT:cvt.obj
 0002:000092a8       $unwind$mbstowcs_s         00000001800242a8     LIBCMT:mbstowcs.obj
 0002:000092a8       $unwind$_itow_s            00000001800242a8     LIBCMT:xtows.obj
 0002:000092a8       $unwind$wctomb_s           00000001800242a8     LIBCMT:wctomb.obj
 0002:000092a8       $unwind$?_Doraise@runtime_error@std@@MEBAXXZ 00000001800242a8     hanaRouting.obj
 0002:000092b0       $unwind$??0_Locinfo@std@@QEAA@PEBD@Z 00000001800242b0     hanaRouting.obj
 0002:000092b0       $unwind$_stricmp_l         00000001800242b0     LIBCMT:stricmp.obj
 0002:000092b0       $unwind$?x_ismbbtype_l@@YAHPEAUlocaleinfo_struct@@IHH@Z 00000001800242b0     LIBCMT:ismbbyte.obj
 0002:000092c0       $unwind$??_Gtype_info@@UEAAPEAXI@Z 00000001800242c0     LIBCMT:typinfo.obj
 0002:000092c0       $unwind$??_G_Locimp@locale@std@@MEAAPEAXI@Z 00000001800242c0     libcpmt:locale0.obj
 0002:000092c0       $unwind$??_Glogic_error@std@@UEAAPEAXI@Z 00000001800242c0     libcpmt:xthrow.obj
 0002:000092c0       $unwind$??_Glength_error@std@@UEAAPEAXI@Z 00000001800242c0     libcpmt:xthrow.obj
 0002:000092c0       $unwind$?_New_Locimp@_Locimp@locale@std@@CAPEAV123@_N@Z 00000001800242c0     libcpmt:locale0.obj
 0002:000092c0       $unwind$?erase@?$basic_string@DU?$char_traits@D@std@@V?$allocator@D@2@@std@@QEAAAEAV12@_K0@Z 00000001800242c0     hanaRouting.obj
 0002:000092c0       $unwind$?_Locinfo_ctor@_Locinfo@std@@SAXPEAV12@PEBD@Z 00000001800242c0     libcpmt:locale0.obj
 0002:000092c0       $unwind$_getptd_noexit     00000001800242c0     LIBCMT:tidtable.obj
 0002:000092c0       $unwind$??_Gbad_alloc@std@@UEAAPEAXI@Z 00000001800242c0     libcpmt:xthrow.obj
 0002:000092c0       $unwind$??_Gout_of_range@std@@UEAAPEAXI@Z 00000001800242c0     libcpmt:xthrow.obj
 0002:000092c0       $unwind$??_G?$basic_ostream@DU?$char_traits@D@std@@@std@@UEAAPEAXI@Z 00000001800242c0     hanaRouting.obj
 0002:000092c0       $unwind$_updatetlocinfoEx_nolock 00000001800242c0     LIBCMT:localref.obj
 0002:000092c0       $unwind$??_G?$basic_ostringstream@DU?$char_traits@D@std@@V?$allocator@D@2@@std@@UEAAPEAXI@Z 00000001800242c0     hanaRouting.obj
 0002:000092c0       $unwind$__initstdio        00000001800242c0     LIBCMT:_file.obj
 0002:000092c0       $unwind$??_G?$numpunct@D@std@@MEAAPEAXI@Z 00000001800242c0     hanaRouting.obj
 0002:000092c0       $unwind$_fptostr           00000001800242c0     LIBCMT:_fptostr.obj
 0002:000092c0       $unwind$??0sentry@?$basic_ostream@DU?$char_traits@D@std@@@std@@QEAA@AEAV12@@Z 00000001800242c0     hanaRouting.obj
 0002:000092c0       $unwind$??_G?$basic_stringbuf@DU?$char_traits@D@std@@V?$allocator@D@2@@std@@UEAAPEAXI@Z 00000001800242c0     hanaRouting.obj
 0002:000092c0       $unwind$GetLcidFromLangCountry 00000001800242c0     LIBCMT:getqloc_downlevel.obj
 0002:000092c0       $unwind$_dosmaperr         00000001800242c0     LIBCMT:dosmap.obj
 0002:000092c0       $unwind$_calloc_impl       00000001800242c0     LIBCMT:calloc_impl.obj
 0002:000092c0       $unwind$__crtGetUserDefaultLocaleName 00000001800242c0     LIBCMT:winapinls.obj
 0002:000092c0       $unwind$_FindAndUnlinkFrame 00000001800242c0     LIBCMT:trnsctrl.obj
 0002:000092c0       $unwind$GetLcidFromLanguage 00000001800242c0     LIBCMT:getqloc_downlevel.obj
 0002:000092c0       $unwind$??_Gexception@std@@UEAAPEAXI@Z 00000001800242c0     LIBCMT:stdexcpt.obj
 0002:000092c0       $unwind$??1_Init_locks@std@@QEAA@XZ 00000001800242c0     libcpmt:xlock.obj
 0002:000092c0       $unwind$_close_nolock      00000001800242c0     LIBCMT:close.obj
 0002:000092c0       $unwind$??_Gios_base@std@@UEAAPEAXI@Z 00000001800242c0     hanaRouting.obj
 0002:000092c0       $unwind$?__SetUnwindTryBlock@@YAXPEA_KPEAU_xDISPATCHER_CONTEXT@@PEBU_s_FuncInfo@@H@Z 00000001800242c0     LIBCMT:ehstate.obj
 0002:000092c0       $unwind$_RTC_Terminate     00000001800242c0     LIBCMT:initsect.obj
 0002:000092c0       $unwind$??_G?$ctype@D@std@@MEAAPEAXI@Z 00000001800242c0     hanaRouting.obj
 0002:000092c0       $unwind$_fclose_nolock     00000001800242c0     LIBCMT:fclose.obj
 0002:000092c0       $unwind$_initp_misc_cfltcvt_tab 00000001800242c0     LIBCMT:cmiscdat.obj
 0002:000092c0       $unwind$??4exception@std@@QEAAAEAV01@AEBV01@@Z 00000001800242c0     LIBCMT:stdexcpt.obj
 0002:000092c0       $unwind$_lock              00000001800242c0     LIBCMT:mlock.obj
 0002:000092c0       $unwind$??1_Locinfo@std@@QEAA@XZ 00000001800242c0     hanaRouting.obj
 0002:000092c0       $unwind$__freeCrtMemory    00000001800242c0     LIBCMT:crt0dat.obj
 0002:000092c0       $unwind$?_Tidy@ios_base@std@@AEAAXXZ 00000001800242c0     libcpmt:ios.obj
 0002:000092c0       $unwind$_RTC_Initialize    00000001800242c0     LIBCMT:initsect.obj
 0002:000092c0       $unwind$_initterm_e        00000001800242c0     LIBCMT:crt0dat.obj
 0002:000092c0       $unwind$??_Gbad_exception@std@@UEAAPEAXI@Z 00000001800242c0     LIBCMT:frame.obj
 0002:000092cc       $unwind$?_Getcat@?$ctype@D@std@@SA_KPEAPEBVfacet@locale@2@PEBV42@@Z 00000001800242cc     hanaRouting.obj
 0002:000092e0       $chain$0$?_Getcat@?$ctype@D@std@@SA_KPEAPEBVfacet@locale@2@PEBV42@@Z 00000001800242e0     hanaRouting.obj
 0002:000092f4       $chain$1$?_Getcat@?$ctype@D@std@@SA_KPEAPEBVfacet@locale@2@PEBV42@@Z 00000001800242f4     hanaRouting.obj
 0002:00009304       $unwind$ProcessCodePage    0000000180024304     LIBCMT:getqloc.obj
 0002:00009304       $unwind$?do_tolower@?$ctype@D@std@@MEBAPEBDPEADPEBD@Z 0000000180024304     hanaRouting.obj
 0002:00009304       $unwind$ProcessCodePage    0000000180024304     LIBCMT:getqloc_downlevel.obj
 0002:00009304       $unwind$?do_toupper@?$ctype@D@std@@MEBAPEBDPEADPEBD@Z 0000000180024304     hanaRouting.obj
 0002:00009314       $chain$0$?do_tolower@?$ctype@D@std@@MEBAPEBDPEADPEBD@Z 0000000180024314     hanaRouting.obj
 0002:00009328       $chain$1$?do_tolower@?$ctype@D@std@@MEBAPEBDPEADPEBD@Z 0000000180024328     hanaRouting.obj
 0002:00009338       $chain$0$?do_toupper@?$ctype@D@std@@MEBAPEBDPEADPEBD@Z 0000000180024338     hanaRouting.obj
 0002:0000934c       $chain$1$?do_toupper@?$ctype@D@std@@MEBAPEBDPEADPEBD@Z 000000018002434c     hanaRouting.obj
 0002:0000935c       $unwind$??0_System_error@std@@IEAA@Verror_code@1@AEBV?$basic_string@DU?$char_traits@D@std@@V?$allocator@D@2@@1@@Z 000000018002435c     hanaRouting.obj
 0002:00009378       $unwind$?clear@ios_base@std@@QEAAXH_N@Z 0000000180024378     hanaRouting.obj
 0002:0000938c       $chain$0$?clear@ios_base@std@@QEAAXH_N@Z 000000018002438c     hanaRouting.obj
 0002:000093a0       $chain$1$?clear@ios_base@std@@QEAAXH_N@Z 00000001800243a0     hanaRouting.obj
 0002:000093b0       $chain$2$?clear@ios_base@std@@QEAAXH_N@Z 00000001800243b0     hanaRouting.obj
 0002:000093c4       $unwind$?Method@demo@@YAXAEBV?$FunctionCallbackInfo@VValue@v8@@@v8@@@Z 00000001800243c4     hanaRouting.obj
 0002:000093e0       $chain$1$?Method@demo@@YAXAEBV?$FunctionCallbackInfo@VValue@v8@@@v8@@@Z 00000001800243e0     hanaRouting.obj
 0002:000093f8       $chain$3$?Method@demo@@YAXAEBV?$FunctionCallbackInfo@VValue@v8@@@v8@@@Z 00000001800243f8     hanaRouting.obj
 0002:00009410       $chain$4$?Method@demo@@YAXAEBV?$FunctionCallbackInfo@VValue@v8@@@v8@@@Z 0000000180024410     hanaRouting.obj
 0002:00009420       $chain$5$?Method@demo@@YAXAEBV?$FunctionCallbackInfo@VValue@v8@@@v8@@@Z 0000000180024420     hanaRouting.obj
 0002:00009430       $unwind$?init@demo@@YAXV?$Local@VObject@v8@@@v8@@@Z 0000000180024430     hanaRouting.obj
 0002:00009438       $unwind$?xsputn@?$basic_streambuf@DU?$char_traits@D@std@@@std@@MEAA_JPEBD_J@Z 0000000180024438     hanaRouting.obj
 0002:00009438       $unwind$?xsgetn@?$basic_streambuf@DU?$char_traits@D@std@@@std@@MEAA_JPEAD_J@Z 0000000180024438     hanaRouting.obj
 0002:0000944c       $chain$0$?xsgetn@?$basic_streambuf@DU?$char_traits@D@std@@@std@@MEAA_JPEAD_J@Z 000000018002444c     hanaRouting.obj
 0002:00009460       $chain$1$?xsgetn@?$basic_streambuf@DU?$char_traits@D@std@@@std@@MEAA_JPEAD_J@Z 0000000180024460     hanaRouting.obj
 0002:00009470       $chain$0$?xsputn@?$basic_streambuf@DU?$char_traits@D@std@@@std@@MEAA_JPEBD_J@Z 0000000180024470     hanaRouting.obj
 0002:00009484       $chain$1$?xsputn@?$basic_streambuf@DU?$char_traits@D@std@@@std@@MEAA_JPEBD_J@Z 0000000180024484     hanaRouting.obj
 0002:00009494       $unwind$??6?$basic_ostream@DU?$char_traits@D@std@@@std@@QEAAAEAV01@N@Z 0000000180024494     hanaRouting.obj
 0002:0000949c       $chain$2$??6?$basic_ostream@DU?$char_traits@D@std@@@std@@QEAAAEAV01@N@Z 000000018002449c     hanaRouting.obj
 0002:000094b8       $chain$3$??6?$basic_ostream@DU?$char_traits@D@std@@@std@@QEAAAEAV01@N@Z 00000001800244b8     hanaRouting.obj
 0002:000094cc       $chain$4$??6?$basic_ostream@DU?$char_traits@D@std@@@std@@QEAAAEAV01@N@Z 00000001800244cc     hanaRouting.obj
 0002:000094dc       $chain$5$??6?$basic_ostream@DU?$char_traits@D@std@@@std@@QEAAAEAV01@N@Z 00000001800244dc     hanaRouting.obj
 0002:000094f0       $chain$6$??6?$basic_ostream@DU?$char_traits@D@std@@@std@@QEAAAEAV01@N@Z 00000001800244f0     hanaRouting.obj
 0002:00009500       $unwind$?overflow@?$basic_stringbuf@DU?$char_traits@D@std@@V?$allocator@D@2@@std@@MEAAHH@Z 0000000180024500     hanaRouting.obj
 0002:0000950c       $chain$0$?overflow@?$basic_stringbuf@DU?$char_traits@D@std@@V?$allocator@D@2@@std@@MEAAHH@Z 000000018002450c     hanaRouting.obj
 0002:00009520       $chain$5$?overflow@?$basic_stringbuf@DU?$char_traits@D@std@@V?$allocator@D@2@@std@@MEAAHH@Z 0000000180024520     hanaRouting.obj
 0002:00009540       $chain$7$?overflow@?$basic_stringbuf@DU?$char_traits@D@std@@V?$allocator@D@2@@std@@MEAAHH@Z 0000000180024540     hanaRouting.obj
 0002:0000955c       $unwind$?seekoff@?$basic_stringbuf@DU?$char_traits@D@std@@V?$allocator@D@2@@std@@MEAA?AV?$fpos@H@2@_JHH@Z 000000018002455c     hanaRouting.obj
 0002:0000956c       $unwind$?seekpos@?$basic_stringbuf@DU?$char_traits@D@std@@V?$allocator@D@2@@std@@MEAA?AV?$fpos@H@2@V32@H@Z 000000018002456c     hanaRouting.obj
 0002:00009578       $unwind$malloc             0000000180024578     LIBCMT:malloc.obj
 0002:00009578       $unwind$?assign@?$basic_string@DU?$char_traits@D@std@@V?$allocator@D@2@@std@@QEAAAEAV12@PEBD_K@Z 0000000180024578     hanaRouting.obj
 0002:00009578       $unwind$_lseeki64_nolock   0000000180024578     LIBCMT:lseeki64.obj
 0002:00009578       $unwind$??_G?$basic_streambuf@DU?$char_traits@D@std@@@std@@UEAAPEAXI@Z 0000000180024578     hanaRouting.obj
 0002:00009578       $unwind$_ioterm            0000000180024578     LIBCMT:ioinit.obj
 0002:00009578       $unwind$_mtinitlocks       0000000180024578     LIBCMT:mlock.obj
 0002:00009578       $unwind$?assign@?$basic_string@DU?$char_traits@D@std@@V?$allocator@D@2@@std@@QEAAAEAV12@_KD@Z 0000000180024578     hanaRouting.obj
 0002:00009578       $unwind$_flush             0000000180024578     LIBCMT:fflush.obj
 0002:00009578       $unwind$realloc            0000000180024578     LIBCMT:realloc.obj
 0002:00009578       $unwind$??0?$basic_streambuf@DU?$char_traits@D@std@@@std@@IEAA@XZ 0000000180024578     hanaRouting.obj
 0002:00009578       $unwind$??4?$_Yarn@D@std@@QEAAAEAV01@PEBD@Z 0000000180024578     libcpmt:locale0.obj
 0002:00009578       $unwind$__crtGetLocaleInfoEx 0000000180024578     LIBCMT:winapinls.obj
 0002:00009578       $unwind$_DllMainCRTStartup 0000000180024578     LIBCMT:dllcrt0.obj
 0002:00009578       $unwind$_Getcvt            0000000180024578     libcpmt:xwctomb.obj
 0002:00009578       $unwind$??0_Init_locks@std@@QEAA@XZ 0000000180024578     libcpmt:xlock.obj
 0002:00009588       $unwind$?append@?$basic_string@DU?$char_traits@D@std@@V?$allocator@D@2@@std@@QEAAAEAV12@AEBV12@_K1@Z 0000000180024588     hanaRouting.obj
 0002:00009588       $unwind$?insert@?$basic_string@DU?$char_traits@D@std@@V?$allocator@D@2@@std@@QEAAAEAV12@_K0D@Z 0000000180024588     hanaRouting.obj
 0002:0000959c       $chain$0$?append@?$basic_string@DU?$char_traits@D@std@@V?$allocator@D@2@@std@@QEAAAEAV12@AEBV12@_K1@Z 000000018002459c     hanaRouting.obj
 0002:000095b0       $chain$1$?append@?$basic_string@DU?$char_traits@D@std@@V?$allocator@D@2@@std@@QEAAAEAV12@AEBV12@_K1@Z 00000001800245b0     hanaRouting.obj
 0002:000095c0       $chain$2$?append@?$basic_string@DU?$char_traits@D@std@@V?$allocator@D@2@@std@@QEAAAEAV12@AEBV12@_K1@Z 00000001800245c0     hanaRouting.obj
 0002:000095d4       $unwind$?append@?$basic_string@DU?$char_traits@D@std@@V?$allocator@D@2@@std@@QEAAAEAV12@PEBD_K@Z 00000001800245d4     hanaRouting.obj
 0002:000095e4       $chain$0$?append@?$basic_string@DU?$char_traits@D@std@@V?$allocator@D@2@@std@@QEAAAEAV12@PEBD_K@Z 00000001800245e4     hanaRouting.obj
 0002:000095f8       $chain$1$?append@?$basic_string@DU?$char_traits@D@std@@V?$allocator@D@2@@std@@QEAAAEAV12@PEBD_K@Z 00000001800245f8     hanaRouting.obj
 0002:00009608       $chain$2$?append@?$basic_string@DU?$char_traits@D@std@@V?$allocator@D@2@@std@@QEAAAEAV12@PEBD_K@Z 0000000180024608     hanaRouting.obj
 0002:0000961c       $unwind$_mtdeletelocks     000000018002461c     LIBCMT:mlock.obj
 0002:0000961c       $unwind$_initterm          000000018002461c     LIBCMT:crt0dat.obj
 0002:0000961c       $unwind$_XcptFilter        000000018002461c     LIBCMT:winxfltr.obj
 0002:0000961c       $unwind$?setSBCS@@YAXPEAUthreadmbcinfostruct@@@Z 000000018002461c     LIBCMT:mbctype.obj
 0002:0000961c       $unwind$xtow_s             000000018002461c     LIBCMT:xtows.obj
 0002:0000961c       $unwind$?__StateFromIp@@YAHPEBU_s_FuncInfo@@PEAU_xDISPATCHER_CONTEXT@@_J@Z 000000018002461c     LIBCMT:ehstate.obj
 0002:0000961c       $unwind$?assign@?$basic_string@DU?$char_traits@D@std@@V?$allocator@D@2@@std@@QEAAAEAV12@AEBV12@_K1@Z 000000018002461c     hanaRouting.obj
 0002:0000961c       $unwind$__freetlocinfo     000000018002461c     LIBCMT:localref.obj
 0002:0000961c       $unwind$?_Copy@?$basic_string@DU?$char_traits@D@std@@V?$allocator@D@2@@std@@QEAAX_K0@Z 000000018002461c     hanaRouting.obj
 0002:00009630       $unwind$?str@?$basic_stringbuf@DU?$char_traits@D@std@@V?$allocator@D@2@@std@@QEBA?AV?$basic_string@DU?$char_traits@D@std@@V?$allocator@D@2@@2@XZ 0000000180024630     hanaRouting.obj
 0002:00009648       $unwind$?do_put@?$num_put@DV?$ostreambuf_iterator@DU?$char_traits@D@std@@@std@@@std@@MEBA?AV?$ostreambuf_iterator@DU?$char_traits@D@std@@@2@V32@AEAVios_base@2@D_N@Z 0000000180024648     hanaRouting.obj
 0002:00009664       $chain$1$?do_put@?$num_put@DV?$ostreambuf_iterator@DU?$char_traits@D@std@@@std@@@std@@MEBA?AV?$ostreambuf_iterator@DU?$char_traits@D@std@@@2@V32@AEAVios_base@2@D_N@Z 0000000180024664     hanaRouting.obj
 0002:0000967c       $chain$2$?do_put@?$num_put@DV?$ostreambuf_iterator@DU?$char_traits@D@std@@@std@@@std@@MEBA?AV?$ostreambuf_iterator@DU?$char_traits@D@std@@@2@V32@AEAVios_base@2@D_N@Z 000000018002467c     hanaRouting.obj
 0002:00009690       $chain$3$?do_put@?$num_put@DV?$ostreambuf_iterator@DU?$char_traits@D@std@@@std@@@std@@MEBA?AV?$ostreambuf_iterator@DU?$char_traits@D@std@@@2@V32@AEAVios_base@2@D_N@Z 0000000180024690     hanaRouting.obj
 0002:000096a0       $chain$4$?do_put@?$num_put@DV?$ostreambuf_iterator@DU?$char_traits@D@std@@@std@@@std@@MEBA?AV?$ostreambuf_iterator@DU?$char_traits@D@std@@@2@V32@AEAVios_base@2@D_N@Z 00000001800246a0     hanaRouting.obj
 0002:000096b0       $unwind$?do_put@?$num_put@DV?$ostreambuf_iterator@DU?$char_traits@D@std@@@std@@@std@@MEBA?AV?$ostreambuf_iterator@DU?$char_traits@D@std@@@2@V32@AEAVios_base@2@DK@Z 00000001800246b0     hanaRouting.obj
 0002:000096b0       $unwind$?do_put@?$num_put@DV?$ostreambuf_iterator@DU?$char_traits@D@std@@@std@@@std@@MEBA?AV?$ostreambuf_iterator@DU?$char_traits@D@std@@@2@V32@AEAVios_base@2@D_J@Z 00000001800246b0     hanaRouting.obj
 0002:000096b0       $unwind$?do_put@?$num_put@DV?$ostreambuf_iterator@DU?$char_traits@D@std@@@std@@@std@@MEBA?AV?$ostreambuf_iterator@DU?$char_traits@D@std@@@2@V32@AEAVios_base@2@DJ@Z 00000001800246b0     hanaRouting.obj
 0002:000096b0       $unwind$?do_put@?$num_put@DV?$ostreambuf_iterator@DU?$char_traits@D@std@@@std@@@std@@MEBA?AV?$ostreambuf_iterator@DU?$char_traits@D@std@@@2@V32@AEAVios_base@2@D_K@Z 00000001800246b0     hanaRouting.obj
 0002:000096c8       $unwind$?do_put@?$num_put@DV?$ostreambuf_iterator@DU?$char_traits@D@std@@@std@@@std@@MEBA?AV?$ostreambuf_iterator@DU?$char_traits@D@std@@@2@V32@AEAVios_base@2@DN@Z 00000001800246c8     hanaRouting.obj
 0002:000096c8       $unwind$?do_put@?$num_put@DV?$ostreambuf_iterator@DU?$char_traits@D@std@@@std@@@std@@MEBA?AV?$ostreambuf_iterator@DU?$char_traits@D@std@@@2@V32@AEAVios_base@2@DO@Z 00000001800246c8     hanaRouting.obj
 0002:000096e8       $unwind$?do_put@?$num_put@DV?$ostreambuf_iterator@DU?$char_traits@D@std@@@std@@@std@@MEBA?AV?$ostreambuf_iterator@DU?$char_traits@D@std@@@2@V32@AEAVios_base@2@DPEBX@Z 00000001800246e8     hanaRouting.obj
 0002:00009700       $chain$0$?insert@?$basic_string@DU?$char_traits@D@std@@V?$allocator@D@2@@std@@QEAAAEAV12@_K0D@Z 0000000180024700     hanaRouting.obj
 0002:00009714       $chain$1$?insert@?$basic_string@DU?$char_traits@D@std@@V?$allocator@D@2@@std@@QEAAAEAV12@_K0D@Z 0000000180024714     hanaRouting.obj
 0002:00009724       $chain$2$?insert@?$basic_string@DU?$char_traits@D@std@@V?$allocator@D@2@@std@@QEAAAEAV12@_K0D@Z 0000000180024724     hanaRouting.obj
 0002:00009738       $unwind$?flush@?$basic_ostream@DU?$char_traits@D@std@@@std@@QEAAAEAV12@XZ 0000000180024738     hanaRouting.obj
 0002:00009738       $unwind$_fassign_l         0000000180024738     LIBCMT:cvt.obj
 0002:00009738       $unwind$_vsprintf_s_l      0000000180024738     LIBCMT:vsnprnc.obj
 0002:00009740       $chain$0$?flush@?$basic_ostream@DU?$char_traits@D@std@@@std@@QEAAAEAV12@XZ 0000000180024740     hanaRouting.obj
 0002:00009754       $chain$1$?flush@?$basic_ostream@DU?$char_traits@D@std@@@std@@QEAAAEAV12@XZ 0000000180024754     hanaRouting.obj
 0002:00009764       $unwind$?_Fput@?$num_put@DV?$ostreambuf_iterator@DU?$char_traits@D@std@@@std@@@std@@AEBA?AV?$ostreambuf_iterator@DU?$char_traits@D@std@@@2@V32@AEAVios_base@2@DPEBD_K333@Z 0000000180024764     hanaRouting.obj
 0002:00009788       $unwind$?_Iput@?$num_put@DV?$ostreambuf_iterator@DU?$char_traits@D@std@@@std@@@std@@AEBA?AV?$ostreambuf_iterator@DU?$char_traits@D@std@@@2@V32@AEAVios_base@2@DPEAD_K@Z 0000000180024788     hanaRouting.obj
 0002:000097ac       $unwind$??$use_facet@V?$ctype@D@std@@@std@@YAAEBV?$ctype@D@0@AEBVlocale@0@@Z 00000001800247ac     hanaRouting.obj
 0002:000097ac       $unwind$??$use_facet@V?$num_put@DV?$ostreambuf_iterator@DU?$char_traits@D@std@@@std@@@std@@@std@@YAAEBV?$num_put@DV?$ostreambuf_iterator@DU?$char_traits@D@std@@@std@@@0@AEBVlocale@0@@Z 00000001800247ac     hanaRouting.obj
 0002:000097ac       $unwind$??$use_facet@V?$numpunct@D@std@@@std@@YAAEBV?$numpunct@D@0@AEBVlocale@0@@Z 00000001800247ac     hanaRouting.obj
 0002:000097bc       $unwind$??$NODE_SET_METHOD@V?$Local@VObject@v8@@@v8@@@node@@YAXAEBV?$Local@VObject@v8@@@v8@@PEBDP6AXAEBV?$FunctionCallbackInfo@VValue@v8@@@2@@Z@Z 00000001800247bc     hanaRouting.obj
 0002:000097c8       $unwind$?_Getcat@?$numpunct@D@std@@SA_KPEAPEBVfacet@locale@2@PEBV42@@Z 00000001800247c8     hanaRouting.obj
 0002:000097c8       $unwind$?_Getcat@?$num_put@DV?$ostreambuf_iterator@DU?$char_traits@D@std@@@std@@@std@@SA_KPEAPEBVfacet@locale@2@PEBV42@@Z 00000001800247c8     hanaRouting.obj
 0002:000097dc       $chain$0$?_Getcat@?$num_put@DV?$ostreambuf_iterator@DU?$char_traits@D@std@@@std@@@std@@SA_KPEAPEBVfacet@locale@2@PEBV42@@Z 00000001800247dc     hanaRouting.obj
 0002:000097f0       $chain$1$?_Getcat@?$num_put@DV?$ostreambuf_iterator@DU?$char_traits@D@std@@@std@@@std@@SA_KPEAPEBVfacet@locale@2@PEBV42@@Z 00000001800247f0     hanaRouting.obj
 0002:00009800       $chain$0$?_Getcat@?$numpunct@D@std@@SA_KPEAPEBVfacet@locale@2@PEBV42@@Z 0000000180024800     hanaRouting.obj
 0002:00009814       $chain$1$?_Getcat@?$numpunct@D@std@@SA_KPEAPEBVfacet@locale@2@PEBV42@@Z 0000000180024814     hanaRouting.obj
 0002:00009824       $unwind$?insert@?$basic_string@DU?$char_traits@D@std@@V?$allocator@D@2@@std@@QEAAAEAV12@_KAEBV12@00@Z 0000000180024824     hanaRouting.obj
 0002:00009834       $chain$0$?insert@?$basic_string@DU?$char_traits@D@std@@V?$allocator@D@2@@std@@QEAAAEAV12@_KAEBV12@00@Z 0000000180024834     hanaRouting.obj
 0002:00009848       $chain$1$?insert@?$basic_string@DU?$char_traits@D@std@@V?$allocator@D@2@@std@@QEAAAEAV12@_KAEBV12@00@Z 0000000180024848     hanaRouting.obj
 0002:00009858       $chain$2$?insert@?$basic_string@DU?$char_traits@D@std@@V?$allocator@D@2@@std@@QEAAAEAV12@_KAEBV12@00@Z 0000000180024858     hanaRouting.obj
 0002:0000986c       $unwind$?_Init@?$numpunct@D@std@@IEAAXAEBV_Locinfo@2@_N@Z 000000018002486c     hanaRouting.obj
 0002:00009884       xdata                      0000000180024884     node:node.exe
 0002:0000988c       $unwind$?_Locimp_dtor@_Locimp@locale@std@@CAXPEAV123@@Z 000000018002488c     libcpmt:locale0.obj
 0002:000098a0       $ip2state$?_Locimp_dtor@_Locimp@locale@std@@CAXPEAV123@@Z 00000001800248a0     libcpmt:locale0.obj
 0002:000098b8       $unwind$?_Init@locale@std@@CAPEAV_Locimp@12@_N@Z 00000001800248b8     libcpmt:locale0.obj
 0002:000098cc       $stateUnwindMap$?_Init@locale@std@@CAPEAV_Locimp@12@_N@Z 00000001800248cc     libcpmt:locale0.obj
 0002:000098cc       $stateUnwindMap$?_Locimp_dtor@_Locimp@locale@std@@CAXPEAV123@@Z 00000001800248cc     libcpmt:locale0.obj
 0002:000098d4       $ip2state$?_Init@locale@std@@CAPEAV_Locimp@12@_N@Z 00000001800248d4     libcpmt:locale0.obj
 0002:000098ec       $unwind$_Tolower           00000001800248ec     libcpmt:_tolower.obj
 0002:000098fc       $unwind$_Toupper           00000001800248fc     libcpmt:_toupper.obj
 0002:00009910       $xdatasym                  0000000180024910     LIBCMT:amdsecgs.obj
 0002:00009914       $unwind$??__Fclassic_locale@std@@YAXXZ 0000000180024914     LIBCMT:abort.obj
 0002:00009914       $unwind$tidy_global        0000000180024914     LIBCMT:abort.obj
 0002:00009914       $unwind$_stricmp           0000000180024914     LIBCMT:abort.obj
 0002:00009914       $unwind$_Deletegloballocale 0000000180024914     LIBCMT:abort.obj
 0002:00009914       $unwind$??8type_info@@QEBA_NAEBV0@@Z 0000000180024914     LIBCMT:abort.obj
 0002:00009914       $unwind$__termconout       0000000180024914     LIBCMT:abort.obj
 0002:00009914       $unwind$_purecall          0000000180024914     LIBCMT:abort.obj
 0002:00009914       $unwind$atexit             0000000180024914     LIBCMT:abort.obj
 0002:00009914       $unwind$?__GetCurrentState@@YAHPEA_KPEAU_xDISPATCHER_CONTEXT@@PEBU_s_FuncInfo@@@Z 0000000180024914     LIBCMT:abort.obj
 0002:00009914       $unwind$_GetThrowImageBase 0000000180024914     LIBCMT:abort.obj
 0002:00009914       $unwind$_copytlocinfo_nolock 0000000180024914     LIBCMT:abort.obj
 0002:00009914       $unwind$_isatty            0000000180024914     LIBCMT:abort.obj
 0002:00009914       $unwind$_set_error_mode    0000000180024914     LIBCMT:abort.obj
 0002:00009914       $unwind$__crtInitializeCriticalSectionEx 0000000180024914     LIBCMT:abort.obj
 0002:00009914       $unwind$_wcsicmp           0000000180024914     LIBCMT:abort.obj
 0002:00009914       $unwind$_GetImageBase      0000000180024914     LIBCMT:abort.obj
 0002:00009914       $unwind$_wcsnicmp          0000000180024914     LIBCMT:abort.obj
 0002:00009914       $unwind$localeconv         0000000180024914     LIBCMT:abort.obj
 0002:00009914       $unwind$__GSHandlerCheck   0000000180024914     LIBCMT:abort.obj
 0002:00009914       $unwind$__crtDownlevelLocaleNameToLCID 0000000180024914     LIBCMT:abort.obj
 0002:00009914       $unwind$__initmbctable     0000000180024914     LIBCMT:abort.obj
 0002:00009914       $unwind$abort              0000000180024914     LIBCMT:abort.obj
 0002:00009914       $unwind$?_Locinfo_dtor@_Locinfo@std@@SAXPEAV12@@Z 0000000180024914     LIBCMT:abort.obj
 0002:00009914       $unwind$??1_Lockit@std@@QEAA@XZ 0000000180024914     LIBCMT:abort.obj
 0002:00009914       $unwind$__crtEnumSystemLocalesEx 0000000180024914     LIBCMT:abort.obj
 0002:00009914       $unwind$__endstdio         0000000180024914     LIBCMT:abort.obj
 0002:00009914       $unwind$__pctype_func      0000000180024914     LIBCMT:abort.obj
 0002:00009914       $unwind$_FF_MSGBANNER      0000000180024914     LIBCMT:abort.obj
 0002:00009914       $unwind$_initp_eh_hooks    0000000180024914     LIBCMT:abort.obj
 0002:00009914       $unwind$??__Einitlocks@std@@YAXXZ 0000000180024914     LIBCMT:abort.obj
 0002:00009914       $unwind$___lc_codepage_func 0000000180024914     LIBCMT:abort.obj
 0002:00009914       $unwind$___lc_locale_name_func 0000000180024914     LIBCMT:abort.obj
 0002:00009914       $unwind$_errno             0000000180024914     LIBCMT:abort.obj
 0002:00009914       $unwind$___mb_cur_max_func 0000000180024914     LIBCMT:abort.obj
 0002:00009914       $unwind$__doserrno         0000000180024914     LIBCMT:abort.obj
 0002:00009914       $unwind$_get_osfhandle     0000000180024914     LIBCMT:abort.obj
 0002:00009914       $unwind$__crtIsValidLocaleName 0000000180024914     LIBCMT:abort.obj
 0002:00009914       $unwind$??__Einitlocks@std@@YAXXZ 0000000180024914     LIBCMT:abort.obj
 0002:00009914       $unwind$_msize             0000000180024914     LIBCMT:abort.obj
 0002:00009914       $unwind$__FrameUnwindFilter 0000000180024914     LIBCMT:abort.obj
 0002:00009914       $unwind$?_Atexit@@YAXP6AXXZ@Z 0000000180024914     LIBCMT:abort.obj
 0002:00009914       $unwind$__report_rangecheckfailure 0000000180024914     LIBCMT:abort.obj
 0002:00009914       $unwind$_mtterm            0000000180024914     LIBCMT:abort.obj
 0002:00009914       $unwind$_heap_init         0000000180024914     LIBCMT:abort.obj
 0002:00009914       $unwind$_fileno            0000000180024914     LIBCMT:abort.obj
 0002:00009914       $unwind$_invoke_watson     0000000180024914     LIBCMT:abort.obj
 0002:00009914       $unwind$??__Finit_atexit@@YAXXZ 0000000180024914     LIBCMT:abort.obj
 0002:0000991c       $unwind$_call_reportfault  000000018002491c     LIBCMT:invarg.obj
 0002:0000993c       $unwind$sprintf_s          000000018002493c     LIBCMT:sprintf.obj
 0002:00009948       $xdatasym                  0000000180024948     LIBCMT:memcpy.obj
 0002:0000994c       $unwind$__free_lconv_num   000000018002494c     LIBCMT:free.obj
 0002:0000994c       $unwind$iswctype           000000018002494c     LIBCMT:free.obj
 0002:0000994c       $unwind$free               000000018002494c     LIBCMT:free.obj
 0002:00009954       $unwind$_onexit            0000000180024954     LIBCMT:onexit.obj
 0002:00009984       $unwind$strcspn            0000000180024984     LIBCMT:strcspn.obj
 0002:00009994       $unwind$_CRT_INIT          0000000180024994     LIBCMT:dllcrt0.obj
 0002:000099b4       $unwind$__DllMainCRTStartup 00000001800249b4     LIBCMT:dllcrt0.obj
 0002:000099dc       $unwind$__init_ctype       00000001800249dc     LIBCMT:initctyp.obj
 0002:00009a08       $xdatasym                  0000000180024a08     LIBCMT:memset.obj
 0002:00009a10       $xdatasym                  0000000180024a10     LIBCMT:strlen.obj
 0002:00009a14       $unwind$_CxxThrowException 0000000180024a14     LIBCMT:throw.obj
 0002:00009a24       $unwind$?__FrameUnwindToEmptyState@@YAXPEA_KPEAU_xDISPATCHER_CONTEXT@@PEBU_s_FuncInfo@@@Z 0000000180024a24     LIBCMT:trnsctrl.obj
 0002:00009a38       $unwind$_UnwindNestedFrames 0000000180024a38     LIBCMT:trnsctrl.obj
 0002:00009a4c       $unwind$_CallSETranslator  0000000180024a4c     LIBCMT:trnsctrl.obj
 0002:00009a6c       $unwind$_CallSETranslator$filt$0 0000000180024a6c     LIBCMT:trnsctrl.obj
 0002:00009a74       $unwind$TranslateName      0000000180024a74     LIBCMT:trnsctrl.obj
 0002:00009a74       $unwind$?_GetRangeOfTrysToCheck@@YAPEBU_s_TryBlockMapEntry@@PEA_KPEBU_s_FuncInfo@@HHPEAI2PEAU_xDISPATCHER_CONTEXT@@@Z 0000000180024a74     LIBCMT:trnsctrl.obj
 0002:00009a74       $unwind$TranslateName      0000000180024a74     LIBCMT:trnsctrl.obj
 0002:00009a74       $unwind$parse_cmdline      0000000180024a74     LIBCMT:trnsctrl.obj
 0002:00009a90       $unwind$?_GetEstablisherFrame@@YAPEA_KPEA_KPEAU_xDISPATCHER_CONTEXT@@PEBU_s_FuncInfo@@0@Z 0000000180024a90     LIBCMT:trnsctrl.obj
 0002:00009aa8       $unwind$__CxxFrameHandler3 0000000180024aa8     LIBCMT:trnsctrl.obj
 0002:00009ab8       $unwind$setlocale          0000000180024ab8     LIBCMT:setlocal.obj
 0002:00009ae8       $unwind$setlocale$fin$0    0000000180024ae8     LIBCMT:setlocal.obj
 0002:00009af0       $unwind$?_Copy_str@exception@std@@AEAAXPEBD@Z 0000000180024af0     LIBCMT:stdexcpt.obj
 0002:00009b00       $unwind$_mtinitlocknum     0000000180024b00     LIBCMT:mlock.obj
 0002:00009b28       $unwind$__crtLCMapStringA  0000000180024b28     LIBCMT:a_map.obj
 0002:00009b38       $unwind$?__crtLCMapStringA_stat@@YAHPEAUlocaleinfo_struct@@PEB_WKPEBDHPEADHHH@Z 0000000180024b38     LIBCMT:a_map.obj
 0002:00009b60       $unwind$_calloc_crt        0000000180024b60     LIBCMT:crtheap.obj
 0002:00009b60       $unwind$_malloc_crt        0000000180024b60     LIBCMT:crtheap.obj
 0002:00009b60       $unwind$__TypeMatch        0000000180024b60     LIBCMT:crtheap.obj
 0002:00009b60       $unwind$GetTableIndexFromLocaleName 0000000180024b60     LIBCMT:crtheap.obj
 0002:00009b60       $unwind$_realloc_crt       0000000180024b60     LIBCMT:crtheap.obj
 0002:00009b78       $xdatasym                  0000000180024b78     LIBCMT:strcmp.obj
 0002:00009b7c       $unwind$__crtCaptureCurrentContext 0000000180024b7c     LIBCMT:winapisupp.obj
 0002:00009b88       $unwind$__crtCapturePreviousContext 0000000180024b88     LIBCMT:winapisupp.obj
 0002:00009b94       $unwind$_tolower_l         0000000180024b94     LIBCMT:tolower.obj
 0002:00009ba8       $xdatasym                  0000000180024ba8     LIBCMT:memcmp.obj
 0002:00009bac       $unwind$__lc_lctowcs       0000000180024bac     LIBCMT:winapinls.obj
 0002:00009bac       $unwind$_setenvp           0000000180024bac     LIBCMT:winapinls.obj
 0002:00009bac       $unwind$_invalid_parameter 0000000180024bac     LIBCMT:winapinls.obj
 0002:00009bac       $unwind$__crtDownlevelLCIDToLocaleName 0000000180024bac     LIBCMT:winapinls.obj
 0002:00009bc0       $unwind$__crtLCMapStringEx 0000000180024bc0     LIBCMT:winapinls.obj
 0002:00009bd0       $unwind$__report_securityfailure 0000000180024bd0     LIBCMT:gs_report.obj
 0002:00009bd8       $unwind$__report_gsfailure 0000000180024bd8     LIBCMT:gs_report.obj
 0002:00009bd8       $unwind$_putwch_nolock     0000000180024bd8     LIBCMT:gs_report.obj
 0002:00009be0       $unwind$doexit             0000000180024be0     LIBCMT:crt0dat.obj
 0002:00009c10       $unwind$raise              0000000180024c10     LIBCMT:winsig.obj
 0002:00009c40       $unwind$_flsbuf            0000000180024c40     LIBCMT:_flsbuf.obj
 0002:00009c54       $unwind$_vsnprintf_helper  0000000180024c54     LIBCMT:vsnprnc.obj
 0002:00009c6c       $unwind$__isa_available_init 0000000180024c6c     LIBCMT:cpu_disp.obj
 0002:00009c80       $unwind$__updatetlocinfo   0000000180024c80     LIBCMT:localref.obj
 0002:00009ca0       $unwind$_freefls           0000000180024ca0     LIBCMT:tidtable.obj
 0002:00009cd4       $unwind$_initptd           0000000180024cd4     LIBCMT:tidtable.obj
 0002:00009d08       $unwind$__init_numeric     0000000180024d08     LIBCMT:chandler.obj
 0002:00009d08       $unwind$__C_specific_handler 0000000180024d08     LIBCMT:chandler.obj
 0002:00009d24       $unwind$__getlocaleinfo    0000000180024d24     LIBCMT:inithelp.obj
 0002:00009d44       $unwind$__updatetmbcinfo   0000000180024d44     LIBCMT:mbctype.obj
 0002:00009d68       $unwind$_setmbcp           0000000180024d68     LIBCMT:mbctype.obj
 0002:00009d98       $unwind$_setmbcp_nolock    0000000180024d98     LIBCMT:mbctype.obj
 0002:00009db8       $unwind$?setSBUpLow@@YAXPEAUthreadmbcinfostruct@@@Z 0000000180024db8     LIBCMT:mbctype.obj
 0002:00009dd4       $unwind$_wsetlocale        0000000180024dd4     LIBCMT:wsetloca.obj
 0002:00009e24       $unwind$__crtLCMapStringW  0000000180024e24     LIBCMT:wsetloca.obj
 0002:00009e24       $unwind$__copy_locale_name 0000000180024e24     LIBCMT:wsetloca.obj
 0002:00009e24       $unwind$_wcsdup            0000000180024e24     LIBCMT:wsetloca.obj
 0002:00009e34       $unwind$_locterm           0000000180024e34     LIBCMT:wsetloca.obj
 0002:00009e54       $unwind$_expandlocale      0000000180024e54     LIBCMT:wsetloca.obj
 0002:00009e74       $unwind$_wcscats           0000000180024e74     LIBCMT:wsetloca.obj
 0002:00009e84       $unwind$__lc_wcstolc       0000000180024e84     LIBCMT:wsetloca.obj
 0002:00009e9c       $unwind$_wsetlocale_set_cat 0000000180024e9c     LIBCMT:wsetloca.obj
 0002:00009ec0       $unwind$_wsetlocale_get_all 0000000180024ec0     LIBCMT:wsetloca.obj
 0002:00009edc       $unwind$_wsetlocale_nolock 0000000180024edc     LIBCMT:wsetloca.obj
 0002:00009f00       $unwind$_ioinit            0000000180024f00     LIBCMT:ioinit.obj
 0002:00009f48       $unwind$_setargv           0000000180024f48     LIBCMT:stdargv.obj
 0002:00009f58       $unwind$__security_init_cookie 0000000180024f58     LIBCMT:gs_support.obj
 0002:00009f64       $unwind$__crtGetEnvironmentStringsA 0000000180024f64     LIBCMT:a_env.obj
 0002:00009f64       $unwind$_wcsnicmp_l        0000000180024f64     LIBCMT:a_env.obj
 0002:00009f64       $unwind$_cftof2_l          0000000180024f64     LIBCMT:a_env.obj
 0002:00009f7c       $unwind$__crtGetStringTypeA 0000000180024f7c     LIBCMT:a_str.obj
 0002:00009f8c       $unwind$?__crtGetStringTypeA_stat@@YAHPEAUlocaleinfo_struct@@KPEBDHPEAGHH@Z 0000000180024f8c     LIBCMT:a_str.obj
 0002:00009fb4       $unwind$__CxxCallCatchBlock 0000000180024fb4     LIBCMT:frame.obj
 0002:00009ff4       $unwind$__CxxCallCatchBlock$fin$1 0000000180024ff4     LIBCMT:frame.obj
 0002:0000a000       $unwind$__FrameUnwindToState 0000000180025000     LIBCMT:frame.obj
 0002:0000a03c       $unwind$?FindHandler@@YAXPEAUEHExceptionRecord@@PEA_KPEAU_CONTEXT@@PEAU_xDISPATCHER_CONTEXT@@PEBU_s_FuncInfo@@EH1@Z 000000018002503c     LIBCMT:frame.obj
 0002:0000a058       $unwind$?CatchIt@@YAXPEAUEHExceptionRecord@@PEA_KPEAU_CONTEXT@@PEAU_xDISPATCHER_CONTEXT@@PEBU_s_FuncInfo@@PEBU_s_HandlerType@@PEBU_s_CatchableType@@PEBU_s_TryBlockMapEntry@@H1EE@Z 0000000180025058     LIBCMT:frame.obj
 0002:0000a070       $unwind$__BuildCatchObject 0000000180025070     LIBCMT:frame.obj
 0002:0000a09c       $unwind$?FindHandlerForForeignException@@YAXPEAUEHExceptionRecord@@PEA_KPEAU_CONTEXT@@PEAU_xDISPATCHER_CONTEXT@@PEBU_s_FuncInfo@@HH1@Z 000000018002509c     LIBCMT:frame.obj
 0002:0000a0b4       $unwind$__DestructExceptionObject 00000001800250b4     LIBCMT:frame.obj
 0002:0000a0d4       $unwind$?IsInExceptionSpec@@YAEPEAUEHExceptionRecord@@PEBU_s_ESTypeList@@@Z 00000001800250d4     LIBCMT:frame.obj
 0002:0000a0f0       $unwind$__InternalCxxFrameHandler 00000001800250f0     LIBCMT:frame.obj
 0002:0000a108       $unwind$__BuildCatchObjectHelper 0000000180025108     LIBCMT:frame.obj
 0002:0000a138       $unwind$?terminate@@YAXXZ  0000000180025138     LIBCMT:hooks.obj
 0002:0000a158       $unwind$?_inconsistency@@YAXXZ 0000000180025158     LIBCMT:hooks.obj
 0002:0000a178       $unwind$?_Type_info_dtor@type_info@@CAXPEAV1@@Z 0000000180025178     LIBCMT:typname.obj
 0002:0000a198       $unwind$?_Xlength_error@std@@YAXPEBD@Z 0000000180025198     LIBCMT:cvt.obj
 0002:0000a198       $unwind$__initconout       0000000180025198     LIBCMT:cvt.obj
 0002:0000a198       $unwind$_cfltcvt           0000000180025198     LIBCMT:cvt.obj
 0002:0000a198       $unwind$?_Xbad_alloc@std@@YAXXZ 0000000180025198     LIBCMT:cvt.obj
 0002:0000a198       $unwind$?_Xout_of_range@std@@YAXPEBD@Z 0000000180025198     LIBCMT:cvt.obj
 0002:0000a1a0       $unwind$_cftoe2_l          00000001800251a0     LIBCMT:cvt.obj
 0002:0000a1bc       $unwind$_cftoe_l           00000001800251bc     LIBCMT:cvt.obj
 0002:0000a1d4       $unwind$_cftoa_l           00000001800251d4     LIBCMT:cvt.obj
 0002:0000a1f0       $unwind$_cftof_l           00000001800251f0     LIBCMT:cvt.obj
 0002:0000a208       $unwind$_cftog_l           0000000180025208     LIBCMT:cvt.obj
 0002:0000a220       $unwind$_NMSG_WRITE        0000000180025220     LIBCMT:crt0msg.obj
 0002:0000a244       $unwind$_mbstowcs_s_l      0000000180025244     LIBCMT:mbstowcs.obj
 0002:0000a25c       $unwind$_mbstowcs_l_helper 000000018002525c     LIBCMT:mbstowcs.obj
 0002:0000a278       $unwind$_wcstombs_s_l      0000000180025278     LIBCMT:wcstombs.obj
 0002:0000a28c       $unwind$_wcstombs_l_helper 000000018002528c     LIBCMT:wcstombs.obj
 0002:0000a2ac       $unwind$_isctype_l         00000001800252ac     LIBCMT:isctype.obj
 0002:0000a2c0       $xdatasym                  00000001800252c0     LIBCMT:chkstk.obj
 0002:0000a2c8       $unwind$?__SehTransFilter@@YAHPEAU_EXCEPTION_POINTERS@@PEAUEHExceptionRecord@@PEA_KPEAU_CONTEXT@@PEAU_xDISPATCHER_CONTEXT@@PEBU_s_FuncInfo@@PEAH@Z 00000001800252c8     LIBCMT:wcsicmp.obj
 0002:0000a2c8       $unwind$_wcsicmp_l         00000001800252c8     LIBCMT:wcsicmp.obj
 0002:0000a2dc       $unwind$islower            00000001800252dc     LIBCMT:_wctype.obj
 0002:0000a2dc       $unwind$_cropzeros_l       00000001800252dc     LIBCMT:_wctype.obj
 0002:0000a2dc       $unwind$??2@YAPEAX_K@Z     00000001800252dc     LIBCMT:_wctype.obj
 0002:0000a2dc       $unwind$_isleadbyte_l      00000001800252dc     LIBCMT:_wctype.obj
 0002:0000a2dc       $unwind$isleadbyte         00000001800252dc     LIBCMT:_wctype.obj
 0002:0000a2dc       $unwind$isupper            00000001800252dc     LIBCMT:_wctype.obj
 0002:0000a2dc       $unwind$?getSystemCP@@YAHH@Z 00000001800252dc     LIBCMT:_wctype.obj
 0002:0000a2dc       $unwind$isdigit            00000001800252dc     LIBCMT:_wctype.obj
 0002:0000a2dc       $unwind$_forcdecpt_l       00000001800252dc     LIBCMT:_wctype.obj
 0002:0000a2e4       $unwind$_IsNonwritableInCurrentImage 00000001800252e4     LIBCMT:pesect.obj
 0002:0000a308       $unwind$_write             0000000180025308     LIBCMT:write.obj
 0002:0000a334       $unwind$_write_nolock      0000000180025334     LIBCMT:write.obj
 0002:0000a358       $unwind$_lseeki64          0000000180025358     LIBCMT:lseeki64.obj
 0002:0000a384       $unwind$_output_s_l        0000000180025384     LIBCMT:outputs.obj
 0002:0000a3a8       $unwind$write_multi_char   00000001800253a8     LIBCMT:outputs.obj
 0002:0000a3bc       $unwind$write_string       00000001800253bc     LIBCMT:outputs.obj
 0002:0000a3d4       $unwind$_wctomb_s_l        00000001800253d4     LIBCMT:wctomb.obj
 0002:0000a3e4       $unwind$__init_monetary    00000001800253e4     LIBCMT:initmon.obj
 0002:0000a400       $unwind$__free_lc_time     0000000180025400     LIBCMT:initmon.obj
 0002:0000a400       $unwind$__free_lconv_mon   0000000180025400     LIBCMT:initmon.obj
 0002:0000a408       $unwind$__init_time        0000000180025408     LIBCMT:inittime.obj
 0002:0000a418       $unwind$_get_lc_time       0000000180025418     LIBCMT:inittime.obj
 0002:0000a430       $xdatasym                  0000000180025430     LIBCMT:jmpuwind.obj
 0002:0000a444       $unwind$__crtGetLocaleInfoA 0000000180025444     LIBCMT:a_loc.obj
 0002:0000a454       $unwind$?__crtGetLocaleInfoA_stat@@YAHPEAUlocaleinfo_struct@@PEB_WKPEADH@Z 0000000180025454     LIBCMT:a_loc.obj
 0002:0000a480       $xdatasym                  0000000180025480     LIBCMT:fpsr.obj
 0002:0000a488       $unwind$__get_qualified_locale 0000000180025488     LIBCMT:getqloc.obj
 0002:0000a4a8       $unwind$LangCountryEnumProcEx 00000001800254a8     LIBCMT:getqloc.obj
 0002:0000a4c8       $unwind$LanguageEnumProcEx 00000001800254c8     LIBCMT:getqloc.obj
 0002:0000a4e0       $unwind$TestDefaultCountry 00000001800254e0     LIBCMT:getqloc.obj
 0002:0000a4f4       $unwind$__get_qualified_locale_downlevel 00000001800254f4     LIBCMT:getqloc_downlevel.obj
 0002:0000a510       $unwind$LangCountryEnumProc 0000000180025510     LIBCMT:getqloc_downlevel.obj
 0002:0000a530       $unwind$LanguageEnumProc   0000000180025530     LIBCMT:getqloc_downlevel.obj
 0002:0000a54c       $unwind$CountryEnumProc    000000018002554c     LIBCMT:getqloc_downlevel.obj
 0002:0000a56c       $unwind$TestDefaultLanguage 000000018002556c     LIBCMT:getqloc_downlevel.obj
 0002:0000a580       $xdatasym                  0000000180025580     LIBCMT:handlers.obj
 0002:0000a588       $unwind$_atodbl_l          0000000180025588     LIBCMT:atodbl.obj
 0002:0000a59c       $unwind$__crt_atoflt_l     000000018002559c     LIBCMT:atodbl.obj
 0002:0000a5b0       $unwind$_fltout2           00000001800255b0     LIBCMT:cfout.obj
 0002:0000a5c8       $unwind$__dtold            00000001800255c8     LIBCMT:cfout.obj
 0002:0000a5d0       $unwind$__crtMessageBoxW   00000001800255d0     LIBCMT:crtmboxw.obj
 0002:0000a5ec       $unwind$_towlower_l        00000001800255ec     LIBCMT:towlower.obj
 0002:0000a5f8       $unwind$flsall             00000001800255f8     LIBCMT:fflush.obj
 0002:0000a638       $unwind$_fcloseall         0000000180025638     LIBCMT:closeall.obj
 0002:0000a660       $unwind$_CRT_INIT$fin$0    0000000180025660     LIBCMT:closeall.obj
 0002:0000a660       $unwind$_lseeki64$fin$0    0000000180025660     LIBCMT:closeall.obj
 0002:0000a660       $unwind$_wsetlocale$fin$1  0000000180025660     LIBCMT:closeall.obj
 0002:0000a660       $unwind$_IsNonwritableInCurrentImage$filt$0 0000000180025660     LIBCMT:closeall.obj
 0002:0000a660       $unwind$__CxxCallCatchBlock$filt$0 0000000180025660     LIBCMT:closeall.obj
 0002:0000a660       $unwind$__DllMainCRTStartup$filt$0 0000000180025660     LIBCMT:closeall.obj
 0002:0000a660       $unwind$_wsetlocale$fin$0  0000000180025660     LIBCMT:closeall.obj
 0002:0000a660       $unwind$_onexit$fin$0      0000000180025660     LIBCMT:closeall.obj
 0002:0000a660       $unwind$_fcloseall$fin$0   0000000180025660     LIBCMT:closeall.obj
 0002:0000a660       $unwind$__lock_fhandle$fin$0 0000000180025660     LIBCMT:closeall.obj
 0002:0000a660       $unwind$_freefls$fin$1     0000000180025660     LIBCMT:closeall.obj
 0002:0000a660       $unwind$_freefls$fin$0     0000000180025660     LIBCMT:closeall.obj
 0002:0000a660       $unwind$raise$fin$0        0000000180025660     LIBCMT:closeall.obj
 0002:0000a660       $unwind$_wsetlocale$fin$2  0000000180025660     LIBCMT:closeall.obj
 0002:0000a660       $unwind$_initptd$fin$1     0000000180025660     LIBCMT:closeall.obj
 0002:0000a660       $unwind$?fin$0@?0??_Type_info_dtor@type_info@@CAXPEAV1@@Z@4HA 0000000180025660     LIBCMT:closeall.obj
 0002:0000a660       $unwind$_initptd$fin$0     0000000180025660     LIBCMT:closeall.obj
 0002:0000a660       $unwind$_mtinitlocknum$fin$0 0000000180025660     LIBCMT:closeall.obj
 0002:0000a660       $unwind$__updatetmbcinfo$fin$0 0000000180025660     LIBCMT:closeall.obj
 0002:0000a660       $unwind$_ioinit$fin$0      0000000180025660     LIBCMT:closeall.obj
 0002:0000a660       $unwind$fclose$fin$0       0000000180025660     LIBCMT:closeall.obj
 0002:0000a660       $unwind$doexit$fin$0       0000000180025660     LIBCMT:closeall.obj
 0002:0000a660       $unwind$_setmbcp$fin$0     0000000180025660     LIBCMT:closeall.obj
 0002:0000a660       $unwind$_close$fin$0       0000000180025660     LIBCMT:closeall.obj
 0002:0000a660       $unwind$_commit$fin$0      0000000180025660     LIBCMT:closeall.obj
 0002:0000a660       $unwind$__FrameUnwindToState$filt$0 0000000180025660     LIBCMT:closeall.obj
 0002:0000a660       $unwind$__DestructExceptionObject$filt$0 0000000180025660     LIBCMT:closeall.obj
 0002:0000a660       $unwind$__FrameUnwindToState$fin$1 0000000180025660     LIBCMT:closeall.obj
 0002:0000a660       $unwind$flsall$fin$1       0000000180025660     LIBCMT:closeall.obj
 0002:0000a660       $unwind$flsall$fin$0       0000000180025660     LIBCMT:closeall.obj
 0002:0000a660       $unwind$_write$fin$0       0000000180025660     LIBCMT:closeall.obj
 0002:0000a660       $unwind$__updatetlocinfo$fin$0 0000000180025660     LIBCMT:closeall.obj
 0002:0000a660       $unwind$_locterm$fin$0     0000000180025660     LIBCMT:closeall.obj
 0002:0000a668       $unwind$_free_osfhnd       0000000180025668     LIBCMT:osfinfo.obj
 0002:0000a678       $unwind$__lock_fhandle     0000000180025678     LIBCMT:osfinfo.obj
 0002:0000a6a4       $unwind$_mbtowc_l          00000001800256a4     LIBCMT:mbtowc.obj
 0002:0000a6bc       $unwind$wcschr             00000001800256bc     LIBCMT:wcschr.obj
 0002:0000a6bc       $unwind$strrchr            00000001800256bc     LIBCMT:wcschr.obj
 0002:0000a6c4       $unwind$_ld12tod           00000001800256c4     LIBCMT:intrncvt.obj
 0002:0000a6c4       $unwind$_ld12tof           00000001800256c4     LIBCMT:intrncvt.obj
 0002:0000a6e8       $unwind$__strgtold12_l     00000001800256e8     LIBCMT:strgtold.obj
 0002:0000a70c       $unwind$$I10_OUTPUT        000000018002570c     LIBCMT:x10fout.obj
 0002:0000a730       $unwind$_commit            0000000180025730     LIBCMT:commit.obj
 0002:0000a758       $unwind$fclose             0000000180025758     LIBCMT:fclose.obj
 0002:0000a77c       $unwind$?wcstoxl@@YAKPEB_WPEAPEB_WHH@Z 000000018002577c     LIBCMT:wcstol.obj
 0002:0000a794       $unwind$__mtold12          0000000180025794     LIBCMT:mantold.obj
 0002:0000a7ac       $unwind$_close             00000001800257ac     LIBCMT:close.obj
 0002:0000a7d4       $unwind$__delayLoadHelper2 00000001800257d4     DelayImp:delayhlp.obj
 0002:0000ad40       .edata                     0000000180025d40     addon.exp
 0002:0000ad68       rgpv                       0000000180025d68     addon.exp
 0002:0000ad6c       rgszName                   0000000180025d6c     addon.exp
 0002:0000ad70       rgwOrd                     0000000180025d70     addon.exp
 0002:0000ad72       szName                     0000000180025d72     addon.exp
 0002:0000ad7d       $N00001                    0000000180025d7d     addon.exp
 0002:0000b014       .idata$6                   0000000180026014     kernel32:KERNEL32.dll
 0003:00000004       init                       0000000180027004     libcpmt:xlock.obj
 0003:00000010       atcount_cdecl              0000000180027010     libcpmt:iosptrs.obj
 0003:00000290       errtable                   0000000180027290     LIBCMT:dosmap.obj
 0003:000003f8       ErrnoNoMem                 00000001800273f8     LIBCMT:dosmap.obj
 0003:000003fc       DoserrorNoMem              00000001800273fc     LIBCMT:dosmap.obj
 0003:00000410       _locktable                 0000000180027410     LIBCMT:mlock.obj
 0003:00000670       ?isPackaged@?1??__crtIsPackagedApp@@9@9 0000000180027670     LIBCMT:winapisupp.obj
 0003:00000adc       ?dazSupported@?1??_ctrlfp@@9@9 0000000180027adc     LIBCMT:fpctrl.obj
 0003:00000f18       __rgctypeflag              0000000180027f18     LIBCMT:mbctype.obj
 0003:00000f20       __rgcode_page_info         0000000180027f20     LIBCMT:mbctype.obj
 0003:00001018       _ctype_loc_style           0000000180028018     LIBCMT:wsetloca.obj
 0003:00001100       ?_names@?1??_get_fname@@9@9 0000000180028100     LIBCMT:fpexcept.obj
 0003:000012d0       dststart                   00000001800282d0     LIBCMT:tzset.obj
 0003:000012e0       dstend                     00000001800282e0     LIBCMT:tzset.obj
 0003:00001300       tzstd                      0000000180028300     LIBCMT:timeset.obj
 0003:00001340       tzdst                      0000000180028340     LIBCMT:timeset.obj
 0003:000017d0       DoubleFormat               00000001800287d0     LIBCMT:intrncvt.obj
 0003:000017e8       FloatFormat                00000001800287e8     LIBCMT:intrncvt.obj
 0003:00001ae0       _module                    0000000180028ae0     hanaRouting.obj
 0003:00001e28       allocator_arg              0000000180028e28     libcpmt:syserror.obj
 0003:00001e29       piecewise_construct        0000000180028e29     libcpmt:syserror.obj
 0003:00001e38       global_locale              0000000180028e38     libcpmt:locale0.obj
 0003:00001e48       _Fac_head                  0000000180028e48     libcpmt:locale0.obj
 0003:00001e68       allocator_arg              0000000180028e68     libcpmt:locale0.obj
 0003:00001e69       piecewise_construct        0000000180028e69     libcpmt:locale0.obj
 0003:00001e6a       _Fac_tidy_reg              0000000180028e6a     libcpmt:locale0.obj
 0003:00001e70       classic_locale             0000000180028e70     libcpmt:locale0.obj
 0003:00001e88       ?registered@?1??_Setgloballocale@locale@std@@CAXPEAX@Z@4_NA 0000000180028e88     libcpmt:locale0.obj
 0003:00001ea0       stdstr                     0000000180028ea0     libcpmt:ios.obj
 0003:00001ef0       stdopens                   0000000180028ef0     libcpmt:ios.obj
 0003:00001efa       allocator_arg              0000000180028efa     libcpmt:ios.obj
 0003:00001efb       piecewise_construct        0000000180028efb     libcpmt:ios.obj
 0003:00001f08       _Tuple_alloc               0000000180028f08     libcpmt:xthrow.obj
 0003:00001f09       ignore                     0000000180028f09     libcpmt:xthrow.obj
 0003:00001f0a       allocator_arg              0000000180028f0a     libcpmt:xthrow.obj
 0003:00001f0b       piecewise_construct        0000000180028f0b     libcpmt:xthrow.obj
 0003:00001f10       initlocks                  0000000180028f10     libcpmt:xlock.obj
 0003:00001f20       mtx                        0000000180028f20     libcpmt:xlock.obj
 0003:00002000       atfuns_cdecl               0000000180029000     libcpmt:iosptrs.obj
 0003:00002050       initlocks                  0000000180029050     libcpmt:iosptrs.obj
 0003:00002051       allocator_arg              0000000180029051     libcpmt:iosptrs.obj
 0003:00002052       piecewise_construct        0000000180029052     libcpmt:iosptrs.obj
 0003:00002053       init_atexit                0000000180029053     libcpmt:iosptrs.obj
 0003:00002054       allocator_arg              0000000180029054     libcpmt:locale.obj
 0003:00002055       piecewise_construct        0000000180029055     libcpmt:locale.obj
 0003:00002068       allocator_arg              0000000180029068     libcpmt:wlocale.obj
 0003:00002069       piecewise_construct        0000000180029069     libcpmt:wlocale.obj
 0003:00002118       allocator_arg              0000000180029118     libcpmt:xlocale.obj
 0003:00002119       piecewise_construct        0000000180029119     libcpmt:xlocale.obj
 0003:00002160       allocator_arg              0000000180029160     libcpmt:xdateord.obj
 0003:00002161       piecewise_construct        0000000180029161     libcpmt:xdateord.obj
 0003:00002188       __proc_attached            0000000180029188     LIBCMT:dllcrt0.obj
 0003:000021b0       lclcritsects               00000001800291b0     LIBCMT:mlock.obj
 0003:000023e8       __crtCallProc              00000001800293e8     LIBCMT:winapinls.obj
 0003:000023f0       GS_ExceptionRecord         00000001800293f0     LIBCMT:gs_report.obj
 0003:00002490       GS_ContextRecord           0000000180029490     LIBCMT:gs_report.obj
 0003:00002960       DebuggerWasPresent         0000000180029960     LIBCMT:gs_report.obj
 0003:000029c0       ctrlc_action               00000001800299c0     LIBCMT:winsig.obj
 0003:000029c8       ctrlbreak_action           00000001800299c8     LIBCMT:winsig.obj
 0003:000029d0       abort_action               00000001800299d0     LIBCMT:winsig.obj
 0003:000029d8       term_action                00000001800299d8     LIBCMT:winsig.obj
 0003:000029e0       ConsoleCtrlHandler_Installed 00000001800299e0     LIBCMT:winsig.obj
 0003:00002a20       fSystemSet                 0000000180029a20     LIBCMT:mbctype.obj
 0003:00002c30       ?_pgmname@?1??_setargv@@9@9 0000000180029c30     LIBCMT:stdargv.obj
 0003:00002d48       __type_info_root_node      0000000180029d48     LIBCMT:typname.obj
 0003:00002d70       ?outmsg@?8??_NMSG_WRITE@@9@9 0000000180029d70     LIBCMT:crt0msg.obj
 0003:000033a0       lastTZ                     000000018002a3a0     LIBCMT:tzset.obj
 0003:000033a8       ?first_time@?1??__tzset@@9@9 000000018002a3a8     LIBCMT:tzset.obj
 0003:000033ac       tzapiused                  000000018002a3ac     LIBCMT:tzset.obj
 0003:000033b0       tzinfo                     000000018002a3b0     LIBCMT:tzset.obj
 0003:00003460       g_pfnRtlGenRandom          000000018002a460     LIBCMT:rand_s.obj
 0003:00003480       __enable_percent_n         000000018002a480     LIBCMT:printf.obj
 0003:000034d0       heap                       000000018002a4d0     LIBCMT:undname.obj
 0003:00003500       ?pfnMessageBox@?1??__crtMessageBoxW@@9@9 000000018002a500     LIBCMT:crtmboxw.obj
 0003:00003508       ?pfnGetActiveWindow@?1??__crtMessageBoxW@@9@9 000000018002a508     LIBCMT:crtmboxw.obj
 0003:00003510       ?pfnGetLastActivePopup@?1??__crtMessageBoxW@@9@9 000000018002a510     LIBCMT:crtmboxw.obj
 0003:00003518       ?pfnGetProcessWindowStation@?1??__crtMessageBoxW@@9@9 000000018002a518     LIBCMT:crtmboxw.obj
 0003:00003520       ?pfnGetUserObjectInformation@?1??__crtMessageBoxW@@9@9 000000018002a520     LIBCMT:crtmboxw.obj
 0003:00003578       allocator_arg              000000018002a578     hanaRouting.obj
 0003:00003579       piecewise_construct        000000018002a579     hanaRouting.obj
 0004:00000000       $pdata$??__Einitlocks@std@@YAXXZ 000000018002c000     libcpmt:xlock.obj
 0004:0000000c       $pdata$??__Einitlocks@std@@YAXXZ 000000018002c00c     libcpmt:iosptrs.obj
 0004:00000018       $pdata$??_Gruntime_error@std@@UEAAPEAXI@Z 000000018002c018     hanaRouting.obj
 0004:00000018       $pdata$??_Gfailure@ios_base@std@@UEAAPEAXI@Z 000000018002c018     hanaRouting.obj
 0004:00000018       $pdata$??_Gexception@stdext@@UEAAPEAXI@Z 000000018002c018     hanaRouting.obj
 0004:00000018       $pdata$??_G_System_error@std@@UEAAPEAXI@Z 000000018002c018     hanaRouting.obj
 0004:00000024       $pdata$?_Doraise@failure@ios_base@std@@MEBAXXZ 000000018002c024     hanaRouting.obj
 0004:00000024       $pdata$?_Doraise@runtime_error@std@@MEBAXXZ 000000018002c024     hanaRouting.obj
 0004:00000030       $pdata$??0_Locinfo@std@@QEAA@PEBD@Z 000000018002c030     hanaRouting.obj
 0004:0000003c       $pdata$??1_Locinfo@std@@QEAA@XZ 000000018002c03c     hanaRouting.obj
 0004:00000048       $pdata$??_G?$num_put@DV?$ostreambuf_iterator@DU?$char_traits@D@std@@@std@@@std@@MEAAPEAXI@Z 000000018002c048     hanaRouting.obj
 0004:00000048       $pdata$??_G_Facet_base@std@@UEAAPEAXI@Z 000000018002c048     hanaRouting.obj
 0004:00000054       $pdata$?_Getcat@?$ctype@D@std@@SA_KPEAPEBVfacet@locale@2@PEBV42@@Z 000000018002c054     hanaRouting.obj
 0004:00000060       $pdata$0$?_Getcat@?$ctype@D@std@@SA_KPEAPEBVfacet@locale@2@PEBV42@@Z 000000018002c060     hanaRouting.obj
 0004:0000006c       $pdata$1$?_Getcat@?$ctype@D@std@@SA_KPEAPEBVfacet@locale@2@PEBV42@@Z 000000018002c06c     hanaRouting.obj
 0004:00000078       $pdata$?do_tolower@?$ctype@D@std@@MEBAPEBDPEADPEBD@Z 000000018002c078     hanaRouting.obj
 0004:00000084       $pdata$0$?do_tolower@?$ctype@D@std@@MEBAPEBDPEADPEBD@Z 000000018002c084     hanaRouting.obj
 0004:00000090       $pdata$1$?do_tolower@?$ctype@D@std@@MEBAPEBDPEADPEBD@Z 000000018002c090     hanaRouting.obj
 0004:0000009c       $pdata$?do_toupper@?$ctype@D@std@@MEBAPEBDPEADPEBD@Z 000000018002c09c     hanaRouting.obj
 0004:000000a8       $pdata$0$?do_toupper@?$ctype@D@std@@MEBAPEBDPEADPEBD@Z 000000018002c0a8     hanaRouting.obj
 0004:000000b4       $pdata$1$?do_toupper@?$ctype@D@std@@MEBAPEBDPEADPEBD@Z 000000018002c0b4     hanaRouting.obj
 0004:000000c0       $pdata$?do_widen@?$ctype@D@std@@MEBAPEBDPEBD0PEAD@Z 000000018002c0c0     hanaRouting.obj
 0004:000000cc       $pdata$?do_narrow@?$ctype@D@std@@MEBAPEBDPEBD0DPEAD@Z 000000018002c0cc     hanaRouting.obj
 0004:000000d8       $pdata$??_G?$ctype@D@std@@MEAAPEAXI@Z 000000018002c0d8     hanaRouting.obj
 0004:000000e4       $pdata$??0_System_error@std@@IEAA@Verror_code@1@AEBV?$basic_string@DU?$char_traits@D@std@@V?$allocator@D@2@@1@@Z 000000018002c0e4     hanaRouting.obj
 0004:000000f0       $pdata$?clear@ios_base@std@@QEAAXH_N@Z 000000018002c0f0     hanaRouting.obj
 0004:000000fc       $pdata$0$?clear@ios_base@std@@QEAAXH_N@Z 000000018002c0fc     hanaRouting.obj
 0004:00000108       $pdata$1$?clear@ios_base@std@@QEAAXH_N@Z 000000018002c108     hanaRouting.obj
 0004:00000114       $pdata$2$?clear@ios_base@std@@QEAAXH_N@Z 000000018002c114     hanaRouting.obj
 0004:00000120       $pdata$??_Gios_base@std@@UEAAPEAXI@Z 000000018002c120     hanaRouting.obj
 0004:0000012c       $pdata$?Method@demo@@YAXAEBV?$FunctionCallbackInfo@VValue@v8@@@v8@@@Z 000000018002c12c     hanaRouting.obj
 0004:00000138       $pdata$1$?Method@demo@@YAXAEBV?$FunctionCallbackInfo@VValue@v8@@@v8@@@Z 000000018002c138     hanaRouting.obj
 0004:00000144       $pdata$3$?Method@demo@@YAXAEBV?$FunctionCallbackInfo@VValue@v8@@@v8@@@Z 000000018002c144     hanaRouting.obj
 0004:00000150       $pdata$4$?Method@demo@@YAXAEBV?$FunctionCallbackInfo@VValue@v8@@@v8@@@Z 000000018002c150     hanaRouting.obj
 0004:0000015c       $pdata$5$?Method@demo@@YAXAEBV?$FunctionCallbackInfo@VValue@v8@@@v8@@@Z 000000018002c15c     hanaRouting.obj
 0004:00000168       $pdata$??_D?$basic_ostringstream@DU?$char_traits@D@std@@V?$allocator@D@2@@std@@QEAAXXZ 000000018002c168     hanaRouting.obj
 0004:00000174       $pdata$?init@demo@@YAXV?$Local@VObject@v8@@@v8@@@Z 000000018002c174     hanaRouting.obj
 0004:00000180       $pdata$?uflow@?$basic_streambuf@DU?$char_traits@D@std@@@std@@MEAAHXZ 000000018002c180     hanaRouting.obj
 0004:0000018c       $pdata$?xsgetn@?$basic_streambuf@DU?$char_traits@D@std@@@std@@MEAA_JPEAD_J@Z 000000018002c18c     hanaRouting.obj
 0004:00000198       $pdata$0$?xsgetn@?$basic_streambuf@DU?$char_traits@D@std@@@std@@MEAA_JPEAD_J@Z 000000018002c198     hanaRouting.obj
 0004:000001a4       $pdata$1$?xsgetn@?$basic_streambuf@DU?$char_traits@D@std@@@std@@MEAA_JPEAD_J@Z 000000018002c1a4     hanaRouting.obj
 0004:000001b0       $pdata$?xsputn@?$basic_streambuf@DU?$char_traits@D@std@@@std@@MEAA_JPEBD_J@Z 000000018002c1b0     hanaRouting.obj
 0004:000001bc       $pdata$0$?xsputn@?$basic_streambuf@DU?$char_traits@D@std@@@std@@MEAA_JPEBD_J@Z 000000018002c1bc     hanaRouting.obj
 0004:000001c8       $pdata$1$?xsputn@?$basic_streambuf@DU?$char_traits@D@std@@@std@@MEAA_JPEBD_J@Z 000000018002c1c8     hanaRouting.obj
 0004:000001d4       $pdata$??6?$basic_ostream@DU?$char_traits@D@std@@@std@@QEAAAEAV01@N@Z 000000018002c1d4     hanaRouting.obj
 0004:000001e0       $pdata$2$??6?$basic_ostream@DU?$char_traits@D@std@@@std@@QEAAAEAV01@N@Z 000000018002c1e0     hanaRouting.obj
 0004:000001ec       $pdata$3$??6?$basic_ostream@DU?$char_traits@D@std@@@std@@QEAAAEAV01@N@Z 000000018002c1ec     hanaRouting.obj
 0004:000001f8       $pdata$4$??6?$basic_ostream@DU?$char_traits@D@std@@@std@@QEAAAEAV01@N@Z 000000018002c1f8     hanaRouting.obj
 0004:00000204       $pdata$5$??6?$basic_ostream@DU?$char_traits@D@std@@@std@@QEAAAEAV01@N@Z 000000018002c204     hanaRouting.obj
 0004:00000210       $pdata$6$??6?$basic_ostream@DU?$char_traits@D@std@@@std@@QEAAAEAV01@N@Z 000000018002c210     hanaRouting.obj
 0004:0000021c       $pdata$??1?$basic_stringbuf@DU?$char_traits@D@std@@V?$allocator@D@2@@std@@UEAA@XZ 000000018002c21c     hanaRouting.obj
 0004:00000228       $pdata$?overflow@?$basic_stringbuf@DU?$char_traits@D@std@@V?$allocator@D@2@@std@@MEAAHH@Z 000000018002c228     hanaRouting.obj
 0004:00000234       $pdata$0$?overflow@?$basic_stringbuf@DU?$char_traits@D@std@@V?$allocator@D@2@@std@@MEAAHH@Z 000000018002c234     hanaRouting.obj
 0004:00000240       $pdata$5$?overflow@?$basic_stringbuf@DU?$char_traits@D@std@@V?$allocator@D@2@@std@@MEAAHH@Z 000000018002c240     hanaRouting.obj
 0004:0000024c       $pdata$7$?overflow@?$basic_stringbuf@DU?$char_traits@D@std@@V?$allocator@D@2@@std@@MEAAHH@Z 000000018002c24c     hanaRouting.obj
 0004:00000258       $pdata$?seekoff@?$basic_stringbuf@DU?$char_traits@D@std@@V?$allocator@D@2@@std@@MEAA?AV?$fpos@H@2@_JHH@Z 000000018002c258     hanaRouting.obj
 0004:00000264       $pdata$?seekpos@?$basic_stringbuf@DU?$char_traits@D@std@@V?$allocator@D@2@@std@@MEAA?AV?$fpos@H@2@V32@H@Z 000000018002c264     hanaRouting.obj
 0004:00000270       $pdata$??_G?$basic_streambuf@DU?$char_traits@D@std@@@std@@UEAAPEAXI@Z 000000018002c270     hanaRouting.obj
 0004:0000027c       $pdata$??_G?$basic_ostream@DU?$char_traits@D@std@@@std@@UEAAPEAXI@Z 000000018002c27c     hanaRouting.obj
 0004:00000288       $pdata$??_G?$basic_ostringstream@DU?$char_traits@D@std@@V?$allocator@D@2@@std@@UEAAPEAXI@Z 000000018002c288     hanaRouting.obj
 0004:00000294       $pdata$??_G?$basic_stringbuf@DU?$char_traits@D@std@@V?$allocator@D@2@@std@@UEAAPEAXI@Z 000000018002c294     hanaRouting.obj
 0004:000002a0       $pdata$?append@?$basic_string@DU?$char_traits@D@std@@V?$allocator@D@2@@std@@QEAAAEAV12@AEBV12@_K1@Z 000000018002c2a0     hanaRouting.obj
 0004:000002ac       $pdata$0$?append@?$basic_string@DU?$char_traits@D@std@@V?$allocator@D@2@@std@@QEAAAEAV12@AEBV12@_K1@Z 000000018002c2ac     hanaRouting.obj
 0004:000002b8       $pdata$1$?append@?$basic_string@DU?$char_traits@D@std@@V?$allocator@D@2@@std@@QEAAAEAV12@AEBV12@_K1@Z 000000018002c2b8     hanaRouting.obj
 0004:000002c4       $pdata$2$?append@?$basic_string@DU?$char_traits@D@std@@V?$allocator@D@2@@std@@QEAAAEAV12@AEBV12@_K1@Z 000000018002c2c4     hanaRouting.obj
 0004:000002d0       $pdata$?append@?$basic_string@DU?$char_traits@D@std@@V?$allocator@D@2@@std@@QEAAAEAV12@PEBD_K@Z 000000018002c2d0     hanaRouting.obj
 0004:000002dc       $pdata$0$?append@?$basic_string@DU?$char_traits@D@std@@V?$allocator@D@2@@std@@QEAAAEAV12@PEBD_K@Z 000000018002c2dc     hanaRouting.obj
 0004:000002e8       $pdata$1$?append@?$basic_string@DU?$char_traits@D@std@@V?$allocator@D@2@@std@@QEAAAEAV12@PEBD_K@Z 000000018002c2e8     hanaRouting.obj
 0004:000002f4       $pdata$2$?append@?$basic_string@DU?$char_traits@D@std@@V?$allocator@D@2@@std@@QEAAAEAV12@PEBD_K@Z 000000018002c2f4     hanaRouting.obj
 0004:00000300       $pdata$?assign@?$basic_string@DU?$char_traits@D@std@@V?$allocator@D@2@@std@@QEAAAEAV12@AEBV12@_K1@Z 000000018002c300     hanaRouting.obj
 0004:0000030c       $pdata$?str@?$basic_stringbuf@DU?$char_traits@D@std@@V?$allocator@D@2@@std@@QEBA?AV?$basic_string@DU?$char_traits@D@std@@V?$allocator@D@2@@2@XZ 000000018002c30c     hanaRouting.obj
 0004:00000318       $pdata$??0sentry@?$basic_ostream@DU?$char_traits@D@std@@@std@@QEAA@AEAV12@@Z 000000018002c318     hanaRouting.obj
 0004:00000324       $pdata$?do_put@?$num_put@DV?$ostreambuf_iterator@DU?$char_traits@D@std@@@std@@@std@@MEBA?AV?$ostreambuf_iterator@DU?$char_traits@D@std@@@2@V32@AEAVios_base@2@D_N@Z 000000018002c324     hanaRouting.obj
 0004:00000330       $pdata$1$?do_put@?$num_put@DV?$ostreambuf_iterator@DU?$char_traits@D@std@@@std@@@std@@MEBA?AV?$ostreambuf_iterator@DU?$char_traits@D@std@@@2@V32@AEAVios_base@2@D_N@Z 000000018002c330     hanaRouting.obj
 0004:0000033c       $pdata$2$?do_put@?$num_put@DV?$ostreambuf_iterator@DU?$char_traits@D@std@@@std@@@std@@MEBA?AV?$ostreambuf_iterator@DU?$char_traits@D@std@@@2@V32@AEAVios_base@2@D_N@Z 000000018002c33c     hanaRouting.obj
 0004:00000348       $pdata$3$?do_put@?$num_put@DV?$ostreambuf_iterator@DU?$char_traits@D@std@@@std@@@std@@MEBA?AV?$ostreambuf_iterator@DU?$char_traits@D@std@@@2@V32@AEAVios_base@2@D_N@Z 000000018002c348     hanaRouting.obj
 0004:00000354       $pdata$4$?do_put@?$num_put@DV?$ostreambuf_iterator@DU?$char_traits@D@std@@@std@@@std@@MEBA?AV?$ostreambuf_iterator@DU?$char_traits@D@std@@@2@V32@AEAVios_base@2@D_N@Z 000000018002c354     hanaRouting.obj
 0004:00000360       $pdata$?do_put@?$num_put@DV?$ostreambuf_iterator@DU?$char_traits@D@std@@@std@@@std@@MEBA?AV?$ostreambuf_iterator@DU?$char_traits@D@std@@@2@V32@AEAVios_base@2@DJ@Z 000000018002c360     hanaRouting.obj
 0004:0000036c       $pdata$?do_put@?$num_put@DV?$ostreambuf_iterator@DU?$char_traits@D@std@@@std@@@std@@MEBA?AV?$ostreambuf_iterator@DU?$char_traits@D@std@@@2@V32@AEAVios_base@2@DK@Z 000000018002c36c     hanaRouting.obj
 0004:00000378       $pdata$?do_put@?$num_put@DV?$ostreambuf_iterator@DU?$char_traits@D@std@@@std@@@std@@MEBA?AV?$ostreambuf_iterator@DU?$char_traits@D@std@@@2@V32@AEAVios_base@2@D_J@Z 000000018002c378     hanaRouting.obj
 0004:00000384       $pdata$?do_put@?$num_put@DV?$ostreambuf_iterator@DU?$char_traits@D@std@@@std@@@std@@MEBA?AV?$ostreambuf_iterator@DU?$char_traits@D@std@@@2@V32@AEAVios_base@2@D_K@Z 000000018002c384     hanaRouting.obj
 0004:00000390       $pdata$?do_put@?$num_put@DV?$ostreambuf_iterator@DU?$char_traits@D@std@@@std@@@std@@MEBA?AV?$ostreambuf_iterator@DU?$char_traits@D@std@@@2@V32@AEAVios_base@2@DN@Z 000000018002c390     hanaRouting.obj
 0004:0000039c       $pdata$?do_put@?$num_put@DV?$ostreambuf_iterator@DU?$char_traits@D@std@@@std@@@std@@MEBA?AV?$ostreambuf_iterator@DU?$char_traits@D@std@@@2@V32@AEAVios_base@2@DO@Z 000000018002c39c     hanaRouting.obj
 0004:000003a8       $pdata$?do_put@?$num_put@DV?$ostreambuf_iterator@DU?$char_traits@D@std@@@std@@@std@@MEBA?AV?$ostreambuf_iterator@DU?$char_traits@D@std@@@2@V32@AEAVios_base@2@DPEBX@Z 000000018002c3a8     hanaRouting.obj
 0004:000003b4       $pdata$?do_grouping@?$numpunct@D@std@@MEBA?AV?$basic_string@DU?$char_traits@D@std@@V?$allocator@D@2@@2@XZ 000000018002c3b4     hanaRouting.obj
 0004:000003c0       $pdata$?do_falsename@?$numpunct@D@std@@MEBA?AV?$basic_string@DU?$char_traits@D@std@@V?$allocator@D@2@@2@XZ 000000018002c3c0     hanaRouting.obj
 0004:000003cc       $pdata$?do_truename@?$numpunct@D@std@@MEBA?AV?$basic_string@DU?$char_traits@D@std@@V?$allocator@D@2@@2@XZ 000000018002c3cc     hanaRouting.obj
 0004:000003d8       $pdata$??_G?$numpunct@D@std@@MEAAPEAXI@Z 000000018002c3d8     hanaRouting.obj
 0004:000003e4       $pdata$?assign@?$basic_string@DU?$char_traits@D@std@@V?$allocator@D@2@@std@@QEAAAEAV12@PEBD_K@Z 000000018002c3e4     hanaRouting.obj
 0004:000003f0       $pdata$?insert@?$basic_string@DU?$char_traits@D@std@@V?$allocator@D@2@@std@@QEAAAEAV12@_K0D@Z 000000018002c3f0     hanaRouting.obj
 0004:000003fc       $pdata$0$?insert@?$basic_string@DU?$char_traits@D@std@@V?$allocator@D@2@@std@@QEAAAEAV12@_K0D@Z 000000018002c3fc     hanaRouting.obj
 0004:00000408       $pdata$1$?insert@?$basic_string@DU?$char_traits@D@std@@V?$allocator@D@2@@std@@QEAAAEAV12@_K0D@Z 000000018002c408     hanaRouting.obj
 0004:00000414       $pdata$2$?insert@?$basic_string@DU?$char_traits@D@std@@V?$allocator@D@2@@std@@QEAAAEAV12@_K0D@Z 000000018002c414     hanaRouting.obj
 0004:00000420       $pdata$?erase@?$basic_string@DU?$char_traits@D@std@@V?$allocator@D@2@@std@@QEAAAEAV12@_K0@Z 000000018002c420     hanaRouting.obj
 0004:0000042c       $pdata$??0?$basic_streambuf@DU?$char_traits@D@std@@@std@@IEAA@XZ 000000018002c42c     hanaRouting.obj
 0004:00000438       $pdata$?flush@?$basic_ostream@DU?$char_traits@D@std@@@std@@QEAAAEAV12@XZ 000000018002c438     hanaRouting.obj
 0004:00000444       $pdata$0$?flush@?$basic_ostream@DU?$char_traits@D@std@@@std@@QEAAAEAV12@XZ 000000018002c444     hanaRouting.obj
 0004:00000450       $pdata$1$?flush@?$basic_ostream@DU?$char_traits@D@std@@@std@@QEAAAEAV12@XZ 000000018002c450     hanaRouting.obj
 0004:0000045c       $pdata$?_Fput@?$num_put@DV?$ostreambuf_iterator@DU?$char_traits@D@std@@@std@@@std@@AEBA?AV?$ostreambuf_iterator@DU?$char_traits@D@std@@@2@V32@AEAVios_base@2@DPEBD_K333@Z 000000018002c45c     hanaRouting.obj
 0004:00000468       $pdata$?_Iput@?$num_put@DV?$ostreambuf_iterator@DU?$char_traits@D@std@@@std@@@std@@AEBA?AV?$ostreambuf_iterator@DU?$char_traits@D@std@@@2@V32@AEAVios_base@2@DPEAD_K@Z 000000018002c468     hanaRouting.obj
 0004:00000474       $pdata$?assign@?$basic_string@DU?$char_traits@D@std@@V?$allocator@D@2@@std@@QEAAAEAV12@_KD@Z 000000018002c474     hanaRouting.obj
 0004:00000480       $pdata$?_Copy@?$basic_string@DU?$char_traits@D@std@@V?$allocator@D@2@@std@@QEAAX_K0@Z 000000018002c480     hanaRouting.obj
 0004:0000048c       $pdata$??$use_facet@V?$ctype@D@std@@@std@@YAAEBV?$ctype@D@0@AEBVlocale@0@@Z 000000018002c48c     hanaRouting.obj
 0004:00000498       $pdata$??$NODE_SET_METHOD@V?$Local@VObject@v8@@@v8@@@node@@YAXAEBV?$Local@VObject@v8@@@v8@@PEBDP6AXAEBV?$FunctionCallbackInfo@VValue@v8@@@2@@Z@Z 000000018002c498     hanaRouting.obj
 0004:000004a4       $pdata$??$use_facet@V?$num_put@DV?$ostreambuf_iterator@DU?$char_traits@D@std@@@std@@@std@@@std@@YAAEBV?$num_put@DV?$ostreambuf_iterator@DU?$char_traits@D@std@@@std@@@0@AEBVlocale@0@@Z 000000018002c4a4     hanaRouting.obj
 0004:000004b0       $pdata$??$use_facet@V?$numpunct@D@std@@@std@@YAAEBV?$numpunct@D@0@AEBVlocale@0@@Z 000000018002c4b0     hanaRouting.obj
 0004:000004bc       $pdata$?_Getcat@?$num_put@DV?$ostreambuf_iterator@DU?$char_traits@D@std@@@std@@@std@@SA_KPEAPEBVfacet@locale@2@PEBV42@@Z 000000018002c4bc     hanaRouting.obj
 0004:000004c8       $pdata$0$?_Getcat@?$num_put@DV?$ostreambuf_iterator@DU?$char_traits@D@std@@@std@@@std@@SA_KPEAPEBVfacet@locale@2@PEBV42@@Z 000000018002c4c8     hanaRouting.obj
 0004:000004d4       $pdata$1$?_Getcat@?$num_put@DV?$ostreambuf_iterator@DU?$char_traits@D@std@@@std@@@std@@SA_KPEAPEBVfacet@locale@2@PEBV42@@Z 000000018002c4d4     hanaRouting.obj
 0004:000004e0       $pdata$?_Getcat@?$numpunct@D@std@@SA_KPEAPEBVfacet@locale@2@PEBV42@@Z 000000018002c4e0     hanaRouting.obj
 0004:000004ec       $pdata$0$?_Getcat@?$numpunct@D@std@@SA_KPEAPEBVfacet@locale@2@PEBV42@@Z 000000018002c4ec     hanaRouting.obj
 0004:000004f8       $pdata$1$?_Getcat@?$numpunct@D@std@@SA_KPEAPEBVfacet@locale@2@PEBV42@@Z 000000018002c4f8     hanaRouting.obj
 0004:00000504       $pdata$?insert@?$basic_string@DU?$char_traits@D@std@@V?$allocator@D@2@@std@@QEAAAEAV12@_KAEBV12@00@Z 000000018002c504     hanaRouting.obj
 0004:00000510       $pdata$0$?insert@?$basic_string@DU?$char_traits@D@std@@V?$allocator@D@2@@std@@QEAAAEAV12@_KAEBV12@00@Z 000000018002c510     hanaRouting.obj
 0004:0000051c       $pdata$1$?insert@?$basic_string@DU?$char_traits@D@std@@V?$allocator@D@2@@std@@QEAAAEAV12@_KAEBV12@00@Z 000000018002c51c     hanaRouting.obj
 0004:00000528       $pdata$2$?insert@?$basic_string@DU?$char_traits@D@std@@V?$allocator@D@2@@std@@QEAAAEAV12@_KAEBV12@00@Z 000000018002c528     hanaRouting.obj
 0004:00000534       $pdata$?_Init@?$numpunct@D@std@@IEAAXAEBV_Locinfo@2@_N@Z 000000018002c534     hanaRouting.obj
 0004:00000540       $pdata$load_exe_hook       000000018002c540     win_delay_load_hook.obj
 0004:00000558       $pdata$_Getcvt             000000018002c558     libcpmt:xwctomb.obj
 0004:00000564       $pdata$??4?$_Yarn@D@std@@QEAAAEAV01@PEBD@Z 000000018002c564     libcpmt:locale0.obj
 0004:00000570       $pdata$??_G_Locimp@locale@std@@MEAAPEAXI@Z 000000018002c570     libcpmt:locale0.obj
 0004:0000057c       $pdata$?_Facet_Register@std@@YAXPEAV_Facet_base@1@@Z 000000018002c57c     libcpmt:locale0.obj
 0004:00000588       $pdata$?_Init@locale@std@@CAPEAV_Locimp@12@_N@Z 000000018002c588     libcpmt:locale0.obj
 0004:00000594       $pdata$?_Locimp_dtor@_Locimp@locale@std@@CAXPEAV123@@Z 000000018002c594     libcpmt:locale0.obj
 0004:000005a0       $pdata$?_Locinfo_ctor@_Locinfo@std@@SAXPEAV12@PEBD@Z 000000018002c5a0     libcpmt:locale0.obj
 0004:000005ac       $pdata$?_Locinfo_dtor@_Locinfo@std@@SAXPEAV12@@Z 000000018002c5ac     libcpmt:locale0.obj
 0004:000005b8       $pdata$?_New_Locimp@_Locimp@locale@std@@CAPEAV123@_N@Z 000000018002c5b8     libcpmt:locale0.obj
 0004:000005c4       $pdata$?_Setgloballocale@locale@std@@CAXPEAX@Z 000000018002c5c4     libcpmt:locale0.obj
 0004:000005d0       $pdata$_Deletegloballocale 000000018002c5d0     libcpmt:locale0.obj
 0004:000005dc       $pdata$tidy_global         000000018002c5dc     libcpmt:locale0.obj
 0004:000005e8       $pdata$?_Ios_base_dtor@ios_base@std@@CAXPEAV12@@Z 000000018002c5e8     libcpmt:ios.obj
 0004:000005f4       $pdata$?_Tidy@ios_base@std@@AEAAXXZ 000000018002c5f4     libcpmt:ios.obj
 0004:00000600       $pdata$??0bad_alloc@std@@QEAA@AEBV01@@Z 000000018002c600     libcpmt:xthrow.obj
 0004:0000060c       $pdata$??0length_error@std@@QEAA@AEBV01@@Z 000000018002c60c     libcpmt:xthrow.obj
 0004:00000618       $pdata$??0logic_error@std@@QEAA@AEBV01@@Z 000000018002c618     libcpmt:xthrow.obj
 0004:00000624       $pdata$??0out_of_range@std@@QEAA@AEBV01@@Z 000000018002c624     libcpmt:xthrow.obj
 0004:00000630       $pdata$??_Gbad_alloc@std@@UEAAPEAXI@Z 000000018002c630     libcpmt:xthrow.obj
 0004:0000063c       $pdata$??_Glogic_error@std@@UEAAPEAXI@Z 000000018002c63c     libcpmt:xthrow.obj
 0004:0000063c       $pdata$??_Gout_of_range@std@@UEAAPEAXI@Z 000000018002c63c     libcpmt:xthrow.obj
 0004:0000063c       $pdata$??_Glength_error@std@@UEAAPEAXI@Z 000000018002c63c     libcpmt:xthrow.obj
 0004:00000648       $pdata$?_Xbad_alloc@std@@YAXXZ 000000018002c648     libcpmt:xthrow.obj
 0004:00000654       $pdata$?_Xlength_error@std@@YAXPEBD@Z 000000018002c654     libcpmt:xthrow.obj
 0004:00000660       $pdata$?_Xout_of_range@std@@YAXPEBD@Z 000000018002c660     libcpmt:xthrow.obj
 0004:0000066c       $pdata$??0_Init_locks@std@@QEAA@XZ 000000018002c66c     libcpmt:xlock.obj
 0004:00000678       $pdata$??0_Lockit@std@@QEAA@H@Z 000000018002c678     libcpmt:xlock.obj
 0004:00000684       $pdata$??1_Init_locks@std@@QEAA@XZ 000000018002c684     libcpmt:xlock.obj
 0004:00000690       $pdata$??1_Lockit@std@@QEAA@XZ 000000018002c690     libcpmt:xlock.obj
 0004:0000069c       $pdata$_Getctype           000000018002c69c     libcpmt:_tolower.obj
 0004:000006a8       $pdata$_Tolower            000000018002c6a8     libcpmt:_tolower.obj
 0004:000006b4       $pdata$_Toupper            000000018002c6b4     libcpmt:_toupper.obj
 0004:000006c0       $pdata$?_Atexit@@YAXP6AXXZ@Z 000000018002c6c0     libcpmt:iosptrs.obj
 0004:000006d8       $pdata$abort               000000018002c6d8     LIBCMT:abort.obj
 0004:000006e4       $pdata$_call_reportfault   000000018002c6e4     LIBCMT:invarg.obj
 0004:000006f0       $pdata$_invalid_parameter  000000018002c6f0     LIBCMT:invarg.obj
 0004:000006fc       $pdata$_invalid_parameter_noinfo 000000018002c6fc     LIBCMT:invarg.obj
 0004:00000708       $pdata$_invoke_watson      000000018002c708     LIBCMT:invarg.obj
 0004:00000714       $pdata$sprintf_s           000000018002c714     LIBCMT:sprintf.obj
 0004:0000072c       $pdata$free                000000018002c72c     LIBCMT:free.obj
 0004:00000738       $pdata$localeconv          000000018002c738     LIBCMT:lconv.obj
 0004:00000744       $pdata$__onexitinit        000000018002c744     LIBCMT:onexit.obj
 0004:00000750       $pdata$_onexit             000000018002c750     LIBCMT:onexit.obj
 0004:0000075c       $pdata$atexit              000000018002c75c     LIBCMT:onexit.obj
 0004:00000768       $pdata$_purecall           000000018002c768     LIBCMT:purevirt.obj
 0004:00000774       $pdata$strcspn             000000018002c774     LIBCMT:strcspn.obj
 0004:00000780       $pdata$??2@YAPEAX_K@Z      000000018002c780     LIBCMT:new.obj
 0004:0000078c       $pdata$??0_LocaleUpdate@@QEAA@PEAUlocaleinfo_struct@@@Z 000000018002c78c     LIBCMT:stricmp.obj
 0004:00000798       $pdata$_stricmp            000000018002c798     LIBCMT:stricmp.obj
 0004:000007a4       $pdata$_stricmp_l          000000018002c7a4     LIBCMT:stricmp.obj
 0004:000007b0       $pdata$_CRT_INIT           000000018002c7b0     LIBCMT:dllcrt0.obj
 0004:000007bc       $pdata$_DllMainCRTStartup  000000018002c7bc     LIBCMT:dllcrt0.obj
 0004:000007c8       $pdata$__DllMainCRTStartup 000000018002c7c8     LIBCMT:dllcrt0.obj
 0004:000007d4       $pdata$___lc_codepage_func 000000018002c7d4     LIBCMT:initctyp.obj
 0004:000007e0       $pdata$___lc_locale_name_func 000000018002c7e0     LIBCMT:initctyp.obj
 0004:000007ec       $pdata$___mb_cur_max_func  000000018002c7ec     LIBCMT:initctyp.obj
 0004:000007f8       $pdata$__init_ctype        000000018002c7f8     LIBCMT:initctyp.obj
 0004:00000804       $pdata$__doserrno          000000018002c804     LIBCMT:dosmap.obj
 0004:00000810       $pdata$_dosmaperr          000000018002c810     LIBCMT:dosmap.obj
 0004:0000081c       $pdata$_errno              000000018002c81c     LIBCMT:dosmap.obj
 0004:00000828       $pdata$?x_ismbbtype_l@@YAHPEAUlocaleinfo_struct@@IHH@Z 000000018002c828     LIBCMT:ismbbyte.obj
 0004:0000084c       $pdata$_CxxThrowException  000000018002c84c     LIBCMT:throw.obj
 0004:00000858       $pdata$?_GetEstablisherFrame@@YAPEA_KPEA_KPEAU_xDISPATCHER_CONTEXT@@PEBU_s_FuncInfo@@0@Z 000000018002c858     LIBCMT:trnsctrl.obj
 0004:00000864       $pdata$?_GetRangeOfTrysToCheck@@YAPEBU_s_TryBlockMapEntry@@PEA_KPEBU_s_FuncInfo@@HHPEAI2PEAU_xDISPATCHER_CONTEXT@@@Z 000000018002c864     LIBCMT:trnsctrl.obj
 0004:00000870       $pdata$?__FrameUnwindToEmptyState@@YAXPEA_KPEAU_xDISPATCHER_CONTEXT@@PEBU_s_FuncInfo@@@Z 000000018002c870     LIBCMT:trnsctrl.obj
 0004:0000087c       $pdata$?__SehTransFilter@@YAHPEAU_EXCEPTION_POINTERS@@PEAUEHExceptionRecord@@PEA_KPEAU_CONTEXT@@PEAU_xDISPATCHER_CONTEXT@@PEBU_s_FuncInfo@@PEAH@Z 000000018002c87c     LIBCMT:trnsctrl.obj
 0004:00000888       $pdata$_CallSETranslator   000000018002c888     LIBCMT:trnsctrl.obj
 0004:00000894       $pdata$_CreateFrameInfo    000000018002c894     LIBCMT:trnsctrl.obj
 0004:000008a0       $pdata$_FindAndUnlinkFrame 000000018002c8a0     LIBCMT:trnsctrl.obj
 0004:000008ac       $pdata$_GetImageBase       000000018002c8ac     LIBCMT:trnsctrl.obj
 0004:000008b8       $pdata$_GetThrowImageBase  000000018002c8b8     LIBCMT:trnsctrl.obj
 0004:000008c4       $pdata$_IsExceptionObjectToBeDestroyed 000000018002c8c4     LIBCMT:trnsctrl.obj
 0004:000008d0       $pdata$_SetImageBase       000000018002c8d0     LIBCMT:trnsctrl.obj
 0004:000008dc       $pdata$_SetThrowImageBase  000000018002c8dc     LIBCMT:trnsctrl.obj
 0004:000008e8       $pdata$_UnwindNestedFrames 000000018002c8e8     LIBCMT:trnsctrl.obj
 0004:000008f4       $pdata$__CxxFrameHandler3  000000018002c8f4     LIBCMT:trnsctrl.obj
 0004:00000900       $pdata$??8type_info@@QEBA_NAEBV0@@Z 000000018002c900     LIBCMT:typinfo.obj
 0004:0000090c       $pdata$??_Gtype_info@@UEAAPEAXI@Z 000000018002c90c     LIBCMT:typinfo.obj
 0004:00000918       $pdata$malloc              000000018002c918     LIBCMT:malloc.obj
 0004:00000924       $pdata$setlocale           000000018002c924     LIBCMT:setlocal.obj
 0004:00000930       $pdata$??0exception@std@@QEAA@AEBQEBD@Z 000000018002c930     LIBCMT:stdexcpt.obj
 0004:0000093c       $pdata$??0exception@std@@QEAA@AEBV01@@Z 000000018002c93c     LIBCMT:stdexcpt.obj
 0004:00000948       $pdata$??4exception@std@@QEAAAEAV01@AEBV01@@Z 000000018002c948     LIBCMT:stdexcpt.obj
 0004:00000954       $pdata$??_Gexception@std@@UEAAPEAXI@Z 000000018002c954     LIBCMT:stdexcpt.obj
 0004:00000960       $pdata$?_Copy_str@exception@std@@AEAAXPEBD@Z 000000018002c960     LIBCMT:stdexcpt.obj
 0004:0000096c       $pdata$?_Tidy@exception@std@@AEAAXXZ 000000018002c96c     LIBCMT:stdexcpt.obj
 0004:00000978       $pdata$_lock               000000018002c978     LIBCMT:mlock.obj
 0004:00000984       $pdata$_mtdeletelocks      000000018002c984     LIBCMT:mlock.obj
 0004:00000990       $pdata$_mtinitlocknum      000000018002c990     LIBCMT:mlock.obj
 0004:0000099c       $pdata$_mtinitlocks        000000018002c99c     LIBCMT:mlock.obj
 0004:000009a8       $pdata$__pctype_func       000000018002c9a8     LIBCMT:ctype.obj
 0004:000009b4       $pdata$isdigit             000000018002c9b4     LIBCMT:_ctype.obj
 0004:000009c0       $pdata$islower             000000018002c9c0     LIBCMT:_ctype.obj
 0004:000009cc       $pdata$isupper             000000018002c9cc     LIBCMT:_ctype.obj
 0004:000009d8       $pdata$_wcsdup             000000018002c9d8     LIBCMT:wcsdup.obj
 0004:000009e4       $pdata$?__crtLCMapStringA_stat@@YAHPEAUlocaleinfo_struct@@PEB_WKPEBDHPEADHHH@Z 000000018002c9e4     LIBCMT:a_map.obj
 0004:000009f0       $pdata$__crtLCMapStringA   000000018002c9f0     LIBCMT:a_map.obj
 0004:000009fc       $pdata$_calloc_crt         000000018002c9fc     LIBCMT:crtheap.obj
 0004:00000a08       $pdata$_malloc_crt         000000018002ca08     LIBCMT:crtheap.obj
 0004:00000a14       $pdata$_realloc_crt        000000018002ca14     LIBCMT:crtheap.obj
 0004:00000a2c       $pdata$__GSHandlerCheck    000000018002ca2c     LIBCMT:gshandler.obj
 0004:00000a38       $pdata$__GSHandlerCheckCommon 000000018002ca38     LIBCMT:gshandler.obj
 0004:00000a44       $pdata$__crtCaptureCurrentContext 000000018002ca44     LIBCMT:winapisupp.obj
 0004:00000a50       $pdata$__crtCapturePreviousContext 000000018002ca50     LIBCMT:winapisupp.obj
 0004:00000a5c       $pdata$__crtInitializeCriticalSectionEx 000000018002ca5c     LIBCMT:winapisupp.obj
 0004:00000a68       $pdata$__crtIsPackagedApp  000000018002ca68     LIBCMT:winapisupp.obj
 0004:00000a74       $pdata$__crtLoadWinApiPointers 000000018002ca74     LIBCMT:winapisupp.obj
 0004:00000a80       $pdata$__crtTerminateProcess 000000018002ca80     LIBCMT:winapisupp.obj
 0004:00000a8c       $pdata$__crtUnhandledException 000000018002ca8c     LIBCMT:winapisupp.obj
 0004:00000a98       $pdata$_tolower_l          000000018002ca98     LIBCMT:tolower.obj
 0004:00000ab0       $pdata$GetTableIndexFromLocaleName 000000018002cab0     LIBCMT:winapinls.obj
 0004:00000abc       $pdata$__crtDownlevelLCIDToLocaleName 000000018002cabc     LIBCMT:winapinls.obj
 0004:00000ac8       $pdata$__crtDownlevelLocaleNameToLCID 000000018002cac8     LIBCMT:winapinls.obj
 0004:00000ad4       $pdata$__crtEnumSystemLocalesEx 000000018002cad4     LIBCMT:winapinls.obj
 0004:00000ae0       $pdata$__crtGetLocaleInfoEx 000000018002cae0     LIBCMT:winapinls.obj
 0004:00000aec       $pdata$__crtGetUserDefaultLocaleName 000000018002caec     LIBCMT:winapinls.obj
 0004:00000af8       $pdata$__crtIsValidLocaleName 000000018002caf8     LIBCMT:winapinls.obj
 0004:00000b04       $pdata$__crtLCMapStringEx  000000018002cb04     LIBCMT:winapinls.obj
 0004:00000b10       $pdata$__crtLCMapStringW   000000018002cb10     LIBCMT:w_map.obj
 0004:00000b1c       $pdata$__raise_securityfailure 000000018002cb1c     LIBCMT:gs_report.obj
 0004:00000b28       $pdata$__report_gsfailure  000000018002cb28     LIBCMT:gs_report.obj
 0004:00000b34       $pdata$__report_rangecheckfailure 000000018002cb34     LIBCMT:gs_report.obj
 0004:00000b40       $pdata$__report_securityfailure 000000018002cb40     LIBCMT:gs_report.obj
 0004:00000b4c       $pdata$__crtCorExitProcess 000000018002cb4c     LIBCMT:crt0dat.obj
 0004:00000b58       $pdata$__crtExitProcess    000000018002cb58     LIBCMT:crt0dat.obj
 0004:00000b64       $pdata$__freeCrtMemory     000000018002cb64     LIBCMT:crt0dat.obj
 0004:00000b70       $pdata$_amsg_exit          000000018002cb70     LIBCMT:crt0dat.obj
 0004:00000b7c       $pdata$_cinit              000000018002cb7c     LIBCMT:crt0dat.obj
 0004:00000b88       $pdata$_init_pointers      000000018002cb88     LIBCMT:crt0dat.obj
 0004:00000b94       $pdata$_initterm           000000018002cb94     LIBCMT:crt0dat.obj
 0004:00000ba0       $pdata$_initterm_e         000000018002cba0     LIBCMT:crt0dat.obj
 0004:00000bac       $pdata$doexit              000000018002cbac     LIBCMT:crt0dat.obj
 0004:00000bb8       $pdata$raise               000000018002cbb8     LIBCMT:winsig.obj
 0004:00000bc4       $pdata$_flsbuf             000000018002cbc4     LIBCMT:_flsbuf.obj
 0004:00000bd0       $pdata$_vsnprintf_helper   000000018002cbd0     LIBCMT:vsnprnc.obj
 0004:00000bdc       $pdata$_vsprintf_s_l       000000018002cbdc     LIBCMT:vsnprnc.obj
 0004:00000be8       $pdata$__isa_available_init 000000018002cbe8     LIBCMT:cpu_disp.obj
 0004:00000bf4       $pdata$_heap_init          000000018002cbf4     LIBCMT:heapinit.obj
 0004:00000c00       $pdata$__freetlocinfo      000000018002cc00     LIBCMT:localref.obj
 0004:00000c0c       $pdata$__updatetlocinfo    000000018002cc0c     LIBCMT:localref.obj
 0004:00000c18       $pdata$_updatetlocinfoEx_nolock 000000018002cc18     LIBCMT:localref.obj
 0004:00000c24       $pdata$_freefls            000000018002cc24     LIBCMT:tidtable.obj
 0004:00000c30       $pdata$_freeptd            000000018002cc30     LIBCMT:tidtable.obj
 0004:00000c3c       $pdata$_getptd             000000018002cc3c     LIBCMT:tidtable.obj
 0004:00000c48       $pdata$_getptd_noexit      000000018002cc48     LIBCMT:tidtable.obj
 0004:00000c54       $pdata$_initptd            000000018002cc54     LIBCMT:tidtable.obj
 0004:00000c60       $pdata$_mtinit             000000018002cc60     LIBCMT:tidtable.obj
 0004:00000c6c       $pdata$_mtterm             000000018002cc6c     LIBCMT:tidtable.obj
 0004:00000c78       $pdata$_msize              000000018002cc78     LIBCMT:msize.obj
 0004:00000c84       $pdata$__C_specific_handler 000000018002cc84     LIBCMT:chandler.obj
 0004:00000c90       $pdata$__getlocaleinfo     000000018002cc90     LIBCMT:inithelp.obj
 0004:00000c9c       $pdata$_callnewh           000000018002cc9c     LIBCMT:handler.obj
 0004:00000ca8       $pdata$__initmbctable      000000018002cca8     LIBCMT:mbctype.obj
 0004:00000cb4       $pdata$?getSystemCP@@YAHH@Z 000000018002ccb4     LIBCMT:mbctype.obj
 0004:00000cc0       $pdata$?setSBCS@@YAXPEAUthreadmbcinfostruct@@@Z 000000018002ccc0     LIBCMT:mbctype.obj
 0004:00000ccc       $pdata$?setSBUpLow@@YAXPEAUthreadmbcinfostruct@@@Z 000000018002cccc     LIBCMT:mbctype.obj
 0004:00000cd8       $pdata$__updatetmbcinfo    000000018002ccd8     LIBCMT:mbctype.obj
 0004:00000ce4       $pdata$_setmbcp            000000018002cce4     LIBCMT:mbctype.obj
 0004:00000cf0       $pdata$_setmbcp_nolock     000000018002ccf0     LIBCMT:mbctype.obj
 0004:00000cfc       $pdata$_locterm            000000018002ccfc     LIBCMT:wsetloca.obj
 0004:00000d08       $pdata$__copy_locale_name  000000018002cd08     LIBCMT:wsetloca.obj
 0004:00000d14       $pdata$__lc_lctowcs        000000018002cd14     LIBCMT:wsetloca.obj
 0004:00000d20       $pdata$__lc_wcstolc        000000018002cd20     LIBCMT:wsetloca.obj
 0004:00000d2c       $pdata$_copytlocinfo_nolock 000000018002cd2c     LIBCMT:wsetloca.obj
 0004:00000d38       $pdata$_expandlocale       000000018002cd38     LIBCMT:wsetloca.obj
 0004:00000d44       $pdata$_wcscats            000000018002cd44     LIBCMT:wsetloca.obj
 0004:00000d50       $pdata$_wsetlocale         000000018002cd50     LIBCMT:wsetloca.obj
 0004:00000d5c       $pdata$_wsetlocale_get_all 000000018002cd5c     LIBCMT:wsetloca.obj
 0004:00000d68       $pdata$_wsetlocale_nolock  000000018002cd68     LIBCMT:wsetloca.obj
 0004:00000d74       $pdata$_wsetlocale_set_cat 000000018002cd74     LIBCMT:wsetloca.obj
 0004:00000d80       $pdata$_XcptFilter         000000018002cd80     LIBCMT:winxfltr.obj
 0004:00000d8c       $pdata$_ioinit             000000018002cd8c     LIBCMT:ioinit.obj
 0004:00000d98       $pdata$_ioterm             000000018002cd98     LIBCMT:ioinit.obj
 0004:00000da4       $pdata$_setargv            000000018002cda4     LIBCMT:stdargv.obj
 0004:00000db0       $pdata$parse_cmdline       000000018002cdb0     LIBCMT:stdargv.obj
 0004:00000dbc       $pdata$_setenvp            000000018002cdbc     LIBCMT:stdenvp.obj
 0004:00000dc8       $pdata$__security_init_cookie 000000018002cdc8     LIBCMT:gs_support.obj
 0004:00000dd4       $pdata$__crtGetEnvironmentStringsA 000000018002cdd4     LIBCMT:a_env.obj
 0004:00000de0       $pdata$_RTC_Initialize     000000018002cde0     LIBCMT:initsect.obj
 0004:00000dec       $pdata$_RTC_Terminate      000000018002cdec     LIBCMT:initsect.obj
 0004:00000df8       $pdata$?__crtGetStringTypeA_stat@@YAHPEAUlocaleinfo_struct@@KPEBDHPEAGHH@Z 000000018002cdf8     LIBCMT:a_str.obj
 0004:00000e04       $pdata$__crtGetStringTypeA 000000018002ce04     LIBCMT:a_str.obj
 0004:00000e10       $pdata$__DestructExceptionObject 000000018002ce10     LIBCMT:frame.obj
 0004:00000e1c       $pdata$??0bad_exception@std@@QEAA@AEBV01@@Z 000000018002ce1c     LIBCMT:frame.obj
 0004:00000e28       $pdata$??_Gbad_exception@std@@UEAAPEAXI@Z 000000018002ce28     LIBCMT:frame.obj
 0004:00000e34       $pdata$?CatchIt@@YAXPEAUEHExceptionRecord@@PEA_KPEAU_CONTEXT@@PEAU_xDISPATCHER_CONTEXT@@PEBU_s_FuncInfo@@PEBU_s_HandlerType@@PEBU_s_CatchableType@@PEBU_s_TryBlockMapEntry@@H1EE@Z 000000018002ce34     LIBCMT:frame.obj
 0004:00000e40       $pdata$?FindHandler@@YAXPEAUEHExceptionRecord@@PEA_KPEAU_CONTEXT@@PEAU_xDISPATCHER_CONTEXT@@PEBU_s_FuncInfo@@EH1@Z 000000018002ce40     LIBCMT:frame.obj
 0004:00000e4c       $pdata$?FindHandlerForForeignException@@YAXPEAUEHExceptionRecord@@PEA_KPEAU_CONTEXT@@PEAU_xDISPATCHER_CONTEXT@@PEBU_s_FuncInfo@@HH1@Z 000000018002ce4c     LIBCMT:frame.obj
 0004:00000e58       $pdata$?IsInExceptionSpec@@YAEPEAUEHExceptionRecord@@PEBU_s_ESTypeList@@@Z 000000018002ce58     LIBCMT:frame.obj
 0004:00000e64       $pdata$__BuildCatchObject  000000018002ce64     LIBCMT:frame.obj
 0004:00000e70       $pdata$__BuildCatchObjectHelper 000000018002ce70     LIBCMT:frame.obj
 0004:00000e7c       $pdata$__CxxCallCatchBlock 000000018002ce7c     LIBCMT:frame.obj
 0004:00000e88       $pdata$__FrameUnwindFilter 000000018002ce88     LIBCMT:frame.obj
 0004:00000e94       $pdata$__FrameUnwindToState 000000018002ce94     LIBCMT:frame.obj
 0004:00000ea0       $pdata$__InternalCxxFrameHandler 000000018002cea0     LIBCMT:frame.obj
 0004:00000eac       $pdata$__TypeMatch         000000018002ceac     LIBCMT:frame.obj
 0004:00000eb8       $pdata$?__GetCurrentState@@YAHPEA_KPEAU_xDISPATCHER_CONTEXT@@PEBU_s_FuncInfo@@@Z 000000018002ceb8     LIBCMT:ehstate.obj
 0004:00000ec4       $pdata$?__GetUnwindTryBlock@@YAHPEA_KPEAU_xDISPATCHER_CONTEXT@@PEBU_s_FuncInfo@@@Z 000000018002cec4     LIBCMT:ehstate.obj
 0004:00000ed0       $pdata$?__SetUnwindTryBlock@@YAXPEA_KPEAU_xDISPATCHER_CONTEXT@@PEBU_s_FuncInfo@@H@Z 000000018002ced0     LIBCMT:ehstate.obj
 0004:00000edc       $pdata$?__StateFromIp@@YAHPEBU_s_FuncInfo@@PEAU_xDISPATCHER_CONTEXT@@_J@Z 000000018002cedc     LIBCMT:ehstate.obj
 0004:00000ee8       $pdata$?_inconsistency@@YAXXZ 000000018002cee8     LIBCMT:hooks.obj
 0004:00000ef4       $pdata$?terminate@@YAXXZ   000000018002cef4     LIBCMT:hooks.obj
 0004:00000f00       $pdata$_initp_eh_hooks     000000018002cf00     LIBCMT:hooks.obj
 0004:00000f0c       $pdata$?_Type_info_dtor@type_info@@CAXPEAV1@@Z 000000018002cf0c     LIBCMT:typname.obj
 0004:00000f18       $pdata$_cfltcvt            000000018002cf18     LIBCMT:cvt.obj
 0004:00000f24       $pdata$_cfltcvt_l          000000018002cf24     LIBCMT:cvt.obj
 0004:00000f30       $pdata$_cftoa_l            000000018002cf30     LIBCMT:cvt.obj
 0004:00000f3c       $pdata$_cftoe2_l           000000018002cf3c     LIBCMT:cvt.obj
 0004:00000f48       $pdata$_cftoe_l            000000018002cf48     LIBCMT:cvt.obj
 0004:00000f54       $pdata$_cftof2_l           000000018002cf54     LIBCMT:cvt.obj
 0004:00000f60       $pdata$_cftof_l            000000018002cf60     LIBCMT:cvt.obj
 0004:00000f6c       $pdata$_cftog_l            000000018002cf6c     LIBCMT:cvt.obj
 0004:00000f78       $pdata$_cropzeros_l        000000018002cf78     LIBCMT:cvt.obj
 0004:00000f84       $pdata$_fassign_l          000000018002cf84     LIBCMT:cvt.obj
 0004:00000f90       $pdata$_forcdecpt_l        000000018002cf90     LIBCMT:cvt.obj
 0004:00000f9c       $pdata$_initp_misc_cfltcvt_tab 000000018002cf9c     LIBCMT:cmiscdat.obj
 0004:00000fa8       $pdata$_FF_MSGBANNER       000000018002cfa8     LIBCMT:crt0msg.obj
 0004:00000fb4       $pdata$_NMSG_WRITE         000000018002cfb4     LIBCMT:crt0msg.obj
 0004:00000fc0       $pdata$_mbstowcs_l_helper  000000018002cfc0     LIBCMT:mbstowcs.obj
 0004:00000fcc       $pdata$_mbstowcs_s_l       000000018002cfcc     LIBCMT:mbstowcs.obj
 0004:00000fd8       $pdata$mbstowcs_s          000000018002cfd8     LIBCMT:mbstowcs.obj
 0004:00000fe4       $pdata$_wcstombs_l_helper  000000018002cfe4     LIBCMT:wcstombs.obj
 0004:00000ff0       $pdata$_wcstombs_s_l       000000018002cff0     LIBCMT:wcstombs.obj
 0004:00000ffc       $pdata$strcpy_s            000000018002cffc     LIBCMT:strcpy_s.obj
 0004:00001008       $pdata$_isctype_l          000000018002d008     LIBCMT:isctype.obj
 0004:00001014       $pdata$calloc              000000018002d014     LIBCMT:calloc.obj
 0004:00001020       $pdata$wcscpy_s            000000018002d020     LIBCMT:wcscpy_s.obj
 0004:00001038       $pdata$realloc             000000018002d038     LIBCMT:realloc.obj
 0004:00001044       $pdata$_calloc_impl        000000018002d044     LIBCMT:calloc_impl.obj
 0004:00001050       $pdata$_wcsicmp            000000018002d050     LIBCMT:wcsicmp.obj
 0004:0000105c       $pdata$_wcsicmp_l          000000018002d05c     LIBCMT:wcsicmp.obj
 0004:00001068       $pdata$_isleadbyte_l       000000018002d068     LIBCMT:_wctype.obj
 0004:00001074       $pdata$isleadbyte          000000018002d074     LIBCMT:_wctype.obj
 0004:00001080       $pdata$_IsNonwritableInCurrentImage 000000018002d080     LIBCMT:pesect.obj
 0004:0000108c       $pdata$__initstdio         000000018002d08c     LIBCMT:_file.obj
 0004:00001098       $pdata$__endstdio          000000018002d098     LIBCMT:_file.obj
 0004:000010a4       $pdata$_lock_file          000000018002d0a4     LIBCMT:_file.obj
 0004:000010b0       $pdata$_lock_file2         000000018002d0b0     LIBCMT:_file.obj
 0004:000010bc       $pdata$_fileno             000000018002d0bc     LIBCMT:fileno.obj
 0004:000010c8       $pdata$_isatty             000000018002d0c8     LIBCMT:isatty.obj
 0004:000010d4       $pdata$_write              000000018002d0d4     LIBCMT:write.obj
 0004:000010e0       $pdata$_write_nolock       000000018002d0e0     LIBCMT:write.obj
 0004:000010ec       $pdata$_lseeki64           000000018002d0ec     LIBCMT:lseeki64.obj
 0004:000010f8       $pdata$_lseeki64_nolock    000000018002d0f8     LIBCMT:lseeki64.obj
 0004:00001104       $pdata$_getbuf             000000018002d104     LIBCMT:_getbuf.obj
 0004:00001110       $pdata$_output_s_l         000000018002d110     LIBCMT:outputs.obj
 0004:0000111c       $pdata$write_char          000000018002d11c     LIBCMT:outputs.obj
 0004:00001128       $pdata$write_multi_char    000000018002d128     LIBCMT:outputs.obj
 0004:00001134       $pdata$write_string        000000018002d134     LIBCMT:outputs.obj
 0004:00001140       $pdata$_wctomb_s_l         000000018002d140     LIBCMT:wctomb.obj
 0004:0000114c       $pdata$wctomb_s            000000018002d14c     LIBCMT:wctomb.obj
 0004:00001158       $pdata$__free_lconv_mon    000000018002d158     LIBCMT:initmon.obj
 0004:00001164       $pdata$__init_monetary     000000018002d164     LIBCMT:initmon.obj
 0004:00001170       $pdata$__free_lconv_num    000000018002d170     LIBCMT:initnum.obj
 0004:0000117c       $pdata$__init_numeric      000000018002d17c     LIBCMT:initnum.obj
 0004:00001188       $pdata$__free_lc_time      000000018002d188     LIBCMT:inittime.obj
 0004:00001194       $pdata$__init_time         000000018002d194     LIBCMT:inittime.obj
 0004:000011a0       $pdata$_get_lc_time        000000018002d1a0     LIBCMT:inittime.obj
 0004:000011dc       $pdata$strncpy_s           000000018002d1dc     LIBCMT:strncpy_s.obj
 0004:000011e8       $pdata$?__crtGetLocaleInfoA_stat@@YAHPEAUlocaleinfo_struct@@PEB_WKPEADH@Z 000000018002d1e8     LIBCMT:a_loc.obj
 0004:000011f4       $pdata$__crtGetLocaleInfoA 000000018002d1f4     LIBCMT:a_loc.obj
 0004:0000120c       $pdata$wcscat_s            000000018002d20c     LIBCMT:wcscat_s.obj
 0004:00001218       $pdata$wcsncpy_s           000000018002d218     LIBCMT:wcsncpy_s.obj
 0004:00001224       $pdata$GetLocaleNameFromLangCountry 000000018002d224     LIBCMT:getqloc.obj
 0004:00001230       $pdata$GetLocaleNameFromLanguage 000000018002d230     LIBCMT:getqloc.obj
 0004:0000123c       $pdata$LangCountryEnumProcEx 000000018002d23c     LIBCMT:getqloc.obj
 0004:00001248       $pdata$LanguageEnumProcEx  000000018002d248     LIBCMT:getqloc.obj
 0004:00001254       $pdata$ProcessCodePage     000000018002d254     LIBCMT:getqloc.obj
 0004:00001260       $pdata$TestDefaultCountry  000000018002d260     LIBCMT:getqloc.obj
 0004:0000126c       $pdata$__get_qualified_locale 000000018002d26c     LIBCMT:getqloc.obj
 0004:00001278       $pdata$CountryEnumProc     000000018002d278     LIBCMT:getqloc_downlevel.obj
 0004:00001284       $pdata$GetLcidFromLangCountry 000000018002d284     LIBCMT:getqloc_downlevel.obj
 0004:00001290       $pdata$GetLcidFromLanguage 000000018002d290     LIBCMT:getqloc_downlevel.obj
 0004:0000129c       $pdata$LangCountryEnumProc 000000018002d29c     LIBCMT:getqloc_downlevel.obj
 0004:000012a8       $pdata$LanguageEnumProc    000000018002d2a8     LIBCMT:getqloc_downlevel.obj
 0004:000012b4       $pdata$ProcessCodePage     000000018002d2b4     LIBCMT:getqloc_downlevel.obj
 0004:000012c0       $pdata$TestDefaultLanguage 000000018002d2c0     LIBCMT:getqloc_downlevel.obj
 0004:000012cc       $pdata$TranslateName       000000018002d2cc     LIBCMT:getqloc_downlevel.obj
 0004:000012cc       $pdata$TranslateName       000000018002d2cc     LIBCMT:getqloc_downlevel.obj
 0004:000012d8       $pdata$__get_qualified_locale_downlevel 000000018002d2d8     LIBCMT:getqloc_downlevel.obj
 0004:000012f0       $pdata$strrchr             000000018002d2f0     LIBCMT:strrchr.obj
 0004:000012fc       $pdata$_fptostr            000000018002d2fc     LIBCMT:_fptostr.obj
 0004:00001308       $pdata$__crt_atoflt_l      000000018002d308     LIBCMT:atodbl.obj
 0004:00001314       $pdata$_atodbl_l           000000018002d314     LIBCMT:atodbl.obj
 0004:00001320       $pdata$__dtold             000000018002d320     LIBCMT:cfout.obj
 0004:0000132c       $pdata$_fltout2            000000018002d32c     LIBCMT:cfout.obj
 0004:00001338       $pdata$_set_error_mode     000000018002d338     LIBCMT:errmode.obj
 0004:00001344       $pdata$__crtMessageBoxW    000000018002d344     LIBCMT:crtmboxw.obj
 0004:00001350       $pdata$_towlower_l         000000018002d350     LIBCMT:towlower.obj
 0004:0000135c       $pdata$iswctype            000000018002d35c     LIBCMT:iswctype.obj
 0004:00001368       $pdata$_fflush_nolock      000000018002d368     LIBCMT:fflush.obj
 0004:00001374       $pdata$_flush              000000018002d374     LIBCMT:fflush.obj
 0004:00001380       $pdata$flsall              000000018002d380     LIBCMT:fflush.obj
 0004:0000138c       $pdata$_fcloseall          000000018002d38c     LIBCMT:closeall.obj
 0004:00001398       $pdata$__lock_fhandle      000000018002d398     LIBCMT:osfinfo.obj
 0004:000013a4       $pdata$_free_osfhnd        000000018002d3a4     LIBCMT:osfinfo.obj
 0004:000013b0       $pdata$_get_osfhandle      000000018002d3b0     LIBCMT:osfinfo.obj
 0004:000013bc       $pdata$_mbtowc_l           000000018002d3bc     LIBCMT:mbtowc.obj
 0004:000013c8       $pdata$_putwch_nolock      000000018002d3c8     LIBCMT:putwch.obj
 0004:000013d4       $pdata$_itow_s             000000018002d3d4     LIBCMT:xtows.obj
 0004:000013e0       $pdata$xtow_s              000000018002d3e0     LIBCMT:xtows.obj
 0004:000013ec       $pdata$wcschr              000000018002d3ec     LIBCMT:wcschr.obj
 0004:000013f8       $pdata$_wcsnicmp           000000018002d3f8     LIBCMT:wcsnicmp.obj
 0004:00001404       $pdata$_wcsnicmp_l         000000018002d404     LIBCMT:wcsnicmp.obj
 0004:00001410       $pdata$_ld12tod            000000018002d410     LIBCMT:intrncvt.obj
 0004:0000141c       $pdata$_ld12tof            000000018002d41c     LIBCMT:intrncvt.obj
 0004:00001428       $pdata$__strgtold12_l      000000018002d428     LIBCMT:strgtold.obj
 0004:00001434       $pdata$$I10_OUTPUT         000000018002d434     LIBCMT:x10fout.obj
 0004:00001440       $pdata$_commit             000000018002d440     LIBCMT:commit.obj
 0004:0000144c       $pdata$_fclose_nolock      000000018002d44c     LIBCMT:fclose.obj
 0004:00001458       $pdata$fclose              000000018002d458     LIBCMT:fclose.obj
 0004:00001464       $pdata$__termconout        000000018002d464     LIBCMT:initcon.obj
 0004:00001470       $pdata$__initconout        000000018002d470     LIBCMT:initcon.obj
 0004:0000147c       $pdata$?wcstoxl@@YAKPEB_WPEAPEB_WHH@Z 000000018002d47c     LIBCMT:wcstol.obj
 0004:00001488       $pdata$__mtold12           000000018002d488     LIBCMT:mantold.obj
 0004:00001494       $pdata$_close              000000018002d494     LIBCMT:close.obj
 0004:000014a0       $pdata$_close_nolock       000000018002d4a0     LIBCMT:close.obj
 0004:000014ac       $pdata$_freebuf            000000018002d4ac     LIBCMT:_freebuf.obj
 0004:000014b8       $pdata$__delayLoadHelper2  000000018002d4b8     DelayImp:delayhlp.obj
 0004:000014c4       $pdata$_onexit$fin$0       000000018002d4c4     LIBCMT:onexit.obj
 0004:000014d0       $pdata$_CRT_INIT$fin$0     000000018002d4d0     LIBCMT:dllcrt0.obj
 0004:000014dc       $pdata$__DllMainCRTStartup$filt$0 000000018002d4dc     LIBCMT:dllcrt0.obj
 0004:000014e8       $pdata$_CallSETranslator$filt$0 000000018002d4e8     LIBCMT:trnsctrl.obj
 0004:000014f4       $pdata$setlocale$fin$0     000000018002d4f4     LIBCMT:setlocal.obj
 0004:00001500       $pdata$_mtinitlocknum$fin$0 000000018002d500     LIBCMT:mlock.obj
 0004:0000150c       $pdata$doexit$fin$0        000000018002d50c     LIBCMT:crt0dat.obj
 0004:00001518       $pdata$raise$fin$0         000000018002d518     LIBCMT:winsig.obj
 0004:00001524       $pdata$__updatetlocinfo$fin$0 000000018002d524     LIBCMT:localref.obj
 0004:00001524       $pdata$_locterm$fin$0      000000018002d524     LIBCMT:localref.obj
 0004:00001530       $pdata$_freefls$fin$1      000000018002d530     LIBCMT:tidtable.obj
 0004:00001530       $pdata$_initptd$fin$1      000000018002d530     LIBCMT:tidtable.obj
 0004:0000153c       $pdata$_freefls$fin$0      000000018002d53c     LIBCMT:tidtable.obj
 0004:0000153c       $pdata$_initptd$fin$0      000000018002d53c     LIBCMT:tidtable.obj
 0004:00001548       $pdata$_setmbcp$fin$0      000000018002d548     LIBCMT:mbctype.obj
 0004:00001548       $pdata$__updatetmbcinfo$fin$0 000000018002d548     LIBCMT:mbctype.obj
 0004:00001554       $pdata$_wsetlocale$fin$1   000000018002d554     LIBCMT:wsetloca.obj
 0004:00001560       $pdata$_wsetlocale$fin$0   000000018002d560     LIBCMT:wsetloca.obj
 0004:0000156c       $pdata$_wsetlocale$fin$2   000000018002d56c     LIBCMT:wsetloca.obj
 0004:00001578       $pdata$_ioinit$fin$0       000000018002d578     LIBCMT:ioinit.obj
 0004:00001584       $pdata$__CxxCallCatchBlock$filt$0 000000018002d584     LIBCMT:frame.obj
 0004:00001590       $pdata$__CxxCallCatchBlock$fin$1 000000018002d590     LIBCMT:frame.obj
 0004:0000159c       $pdata$__DestructExceptionObject$filt$0 000000018002d59c     LIBCMT:frame.obj
 0004:000015a8       $pdata$__FrameUnwindToState$filt$0 000000018002d5a8     LIBCMT:frame.obj
 0004:000015b4       $pdata$__FrameUnwindToState$fin$1 000000018002d5b4     LIBCMT:frame.obj
 0004:000015c0       $pdata$?fin$0@?0??_Type_info_dtor@type_info@@CAXPEAV1@@Z@4HA 000000018002d5c0     LIBCMT:typname.obj
 0004:000015cc       $pdata$_IsNonwritableInCurrentImage$filt$0 000000018002d5cc     LIBCMT:pesect.obj
 0004:000015d8       $pdata$_write$fin$0        000000018002d5d8     LIBCMT:lseeki64.obj
 0004:000015d8       $pdata$_lseeki64$fin$0     000000018002d5d8     LIBCMT:lseeki64.obj
 0004:000015e4       $pdata$flsall$fin$0        000000018002d5e4     LIBCMT:fflush.obj
 0004:000015f0       $pdata$flsall$fin$1        000000018002d5f0     LIBCMT:fflush.obj
 0004:000015fc       $pdata$_fcloseall$fin$0    000000018002d5fc     LIBCMT:closeall.obj
 0004:00001608       $pdata$__lock_fhandle$fin$0 000000018002d608     LIBCMT:osfinfo.obj
 0004:00001614       $pdata$_close$fin$0        000000018002d614     LIBCMT:commit.obj
 0004:00001614       $pdata$_commit$fin$0       000000018002d614     LIBCMT:commit.obj
 0004:00001620       $pdata$fclose$fin$0        000000018002d620     LIBCMT:fclose.obj
 0004:0000162c       $pdata$??__F_Fac_tidy_reg@std@@YAXXZ 000000018002d62c     libcpmt:locale0.obj
 0004:00001638       $pdata$??__Fclassic_locale@std@@YAXXZ 000000018002d638     libcpmt:locale0.obj
 0004:00001644       $pdata$??__Finit_atexit@@YAXXZ 000000018002d644     libcpmt:iosptrs.obj
 0005:00000060       $R000000                   000000018002e060     * linker generated manifest res *

 Exports

  ordinal    name

        1    _register_addon_
